TN:
SF:/Users/tristan/Documents/Sources/BurgerQuiz/controllers/BurgerController.cpp
FN:8,_ZN16BurgerControllerC1EP7QObject
FN:8,_ZN16BurgerControllerC2EP7QObject
FN:17,_ZN16BurgerControllerD2Ev
FN:17,_ZN16BurgerControllerD1Ev
FN:17,_ZN16BurgerControllerD0Ev
FN:29,_ZN16BurgerController22initializeStateMachineEv
FN:60,_ZN16BurgerController10findBurgerEv
FN:80,_ZN16BurgerController11tryNextPortEv
FN:93,_ZN16BurgerController12onPortOpenedEv
FN:103,_ZN16BurgerController15onPortNotOpenedEv
FN:109,_ZN16BurgerController13onDataWrittenEy
FN:114,_ZN16BurgerController14onDataReceivedE10QByteArray
FN:162,_ZN16BurgerController18onStateInitializedEv
FN:167,_ZN16BurgerController16onEtatPortOpenedEv
FN:189,_ZN16BurgerController14onEtatPingSentEv
FN:195,_ZN16BurgerController13onPingTimeoutEv
FN:203,_ZN16BurgerController18onEtatPongReceivedEv
FN:212,_ZN16BurgerController10onEtatPretEv
FN:217,_ZN16BurgerController19onEtatButtonPressedEv
FN:222,_ZN16BurgerController15onEtatDesactiveEv
FN:228,_ZN16BurgerController17onEtatSelectionneEv
FN:235,_ZN16BurgerController12onEtatErreurEv
FN:240,_ZN16BurgerController13startBlinkingEv
FN:248,_ZN16BurgerController12stopBlinkingEv
FNDA:0,_ZN16BurgerControllerD1Ev
FNDA:0,_ZN16BurgerController18onEtatPongReceivedEv
FNDA:0,_ZN16BurgerControllerD0Ev
FNDA:0,_ZN16BurgerController13onPingTimeoutEv
FNDA:0,_ZN16BurgerController18onStateInitializedEv
FNDA:0,_ZN16BurgerController11tryNextPortEv
FNDA:0,_ZN16BurgerControllerC2EP7QObject
FNDA:0,_ZN16BurgerController10onEtatPretEv
FNDA:0,_ZN16BurgerController19onEtatButtonPressedEv
FNDA:0,_ZN16BurgerController13onDataWrittenEy
FNDA:0,_ZN16BurgerController14onDataReceivedE10QByteArray
FNDA:0,_ZN16BurgerController12stopBlinkingEv
FNDA:0,_ZN16BurgerController10findBurgerEv
FNDA:0,_ZN16BurgerController22initializeStateMachineEv
FNDA:0,_ZN16BurgerControllerD2Ev
FNDA:0,_ZN16BurgerControllerC1EP7QObject
FNDA:0,_ZN16BurgerController15onPortNotOpenedEv
FNDA:0,_ZN16BurgerController13startBlinkingEv
FNDA:0,_ZN16BurgerController12onPortOpenedEv
FNDA:0,_ZN16BurgerController14onEtatPingSentEv
FNDA:0,_ZN16BurgerController12onEtatErreurEv
FNDA:0,_ZN16BurgerController16onEtatPortOpenedEv
FNDA:0,_ZN16BurgerController15onEtatDesactiveEv
FNDA:0,_ZN16BurgerController17onEtatSelectionneEv
FNF:24
FNH:0
DA:8,0
DA:9,0
DA:10,0
DA:11,0
DA:12,0
DA:15,0
DA:18,0
DA:19,0
DA:20,0
DA:21,0
DA:22,0
DA:23,0
DA:24,0
DA:25,0
DA:26,0
DA:27,0
DA:31,0
DA:32,0
DA:33,0
DA:34,0
DA:35,0
DA:36,0
DA:37,0
DA:38,0
DA:39,0
DA:40,0
DA:42,0
DA:43,0
DA:44,0
DA:45,0
DA:46,0
DA:48,0
DA:49,0
DA:50,0
DA:51,0
DA:52,0
DA:53,0
DA:54,0
DA:55,0
DA:56,0
DA:57,0
DA:58,0
DA:62,0
DA:63,0
DA:64,0
DA:65,0
DA:66,0
DA:67,0
DA:68,0
DA:70,0
DA:71,0
DA:72,0
DA:74,0
DA:76,0
DA:77,0
DA:78,0
DA:81,0
DA:82,0
DA:83,0
DA:86,0
DA:87,0
DA:89,0
DA:90,0
DA:91,0
DA:95,0
DA:96,0
DA:97,0
DA:100,0
DA:101,0
DA:105,0
DA:106,0
DA:107,0
DA:111,0
DA:112,0
DA:122,0
DA:125,0
DA:126,0
DA:127,0
DA:128,0
DA:129,0
DA:130,0
DA:131,0
DA:133,0
DA:134,0
DA:135,0
DA:138,0
DA:140,0
DA:141,0
DA:143,0
DA:147,0
DA:148,0
DA:149,0
DA:152,0
DA:153,0
DA:154,0
DA:155,0
DA:156,0
DA:157,0
DA:159,0
DA:160,0
DA:164,0
DA:165,0
DA:169,0
DA:171,0
DA:172,0
DA:174,0
DA:175,0
DA:177,0
DA:178,0
DA:179,0
DA:183,0
DA:185,0
DA:186,0
DA:187,0
DA:191,0
DA:192,0
DA:193,0
DA:197,0
DA:198,0
DA:199,0
DA:200,0
DA:201,0
DA:205,0
DA:207,0
DA:208,0
DA:209,0
DA:210,0
DA:214,0
DA:215,0
DA:219,0
DA:220,0
DA:224,0
DA:225,0
DA:226,0
DA:230,0
DA:231,0
DA:232,0
DA:233,0
DA:237,0
DA:238,0
DA:242,0
DA:243,0
DA:245,0
DA:246,0
DA:250,0
DA:251,0
DA:252,0
DA:268,0
DA:270,0
LF:149
LH:0
end_of_record
TN:
SF:/Users/tristan/Documents/Sources/BurgerQuiz/controllers/GameController.cpp
FN:12,_ZN14GameControllerC2EP7QObject
FN:12,_ZN14GameControllerC1EP7QObject
FN:26,_ZNK14GameController7isReadyEv
FN:30,_ZN14GameController10initializeEv
FN:38,_ZN14GameController13onBurgerReadyEv
FN:58,_ZN14GameController16findSecondBurgerEv
FN:66,__cxx_global_var_init.9
FN:67,_ZN14GameController15onButtonPressedEv
FN:101,_ZN14GameController18onGameStateChangedEv
FNDA:0,_ZNK14GameController7isReadyEv
FNDA:0,_ZN14GameController10initializeEv
FNDA:3,__cxx_global_var_init.9
FNDA:0,_ZN14GameControllerC2EP7QObject
FNDA:0,_ZN14GameController18onGameStateChangedEv
FNDA:0,_ZN14GameController16findSecondBurgerEv
FNDA:0,_ZN14GameControllerC1EP7QObject
FNDA:0,_ZN14GameController15onButtonPressedEv
FNDA:0,_ZN14GameController13onBurgerReadyEv
FNF:9
FNH:1
DA:13,0
DA:14,0
DA:15,0
DA:16,0
DA:17,0
DA:18,0
DA:19,0
DA:20,0
DA:21,0
DA:22,0
DA:23,0
DA:24,0
DA:27,0
DA:28,0
DA:32,0
DA:34,0
DA:35,0
DA:36,0
DA:40,0
DA:41,0
DA:42,0
DA:43,0
DA:45,0
DA:46,0
DA:48,0
DA:49,0
DA:50,0
DA:51,0
DA:52,0
DA:54,0
DA:56,0
DA:60,0
DA:61,0
DA:62,0
DA:66,6
DA:70,0
DA:72,0
DA:73,0
DA:74,0
DA:77,0
DA:78,0
DA:79,0
DA:82,0
DA:84,0
DA:85,0
DA:88,0
DA:89,0
DA:91,0
DA:92,0
DA:93,0
DA:95,0
DA:96,0
DA:98,0
DA:99,0
DA:103,0
DA:104,0
DA:116,0
LF:57
LH:1
end_of_record
TN:
SF:/Users/tristan/Documents/Sources/BurgerQuiz/controllers/SerialPortController.cpp
FN:9,_ZN20SerialPortControllerC2EP7QObject
FN:9,_ZN20SerialPortControllerC1EP7QObject
FN:13,_ZN20SerialPortControllerD1Ev
FN:13,_ZN20SerialPortControllerD0Ev
FN:13,_ZN20SerialPortControllerD2Ev
FN:17,_ZN20SerialPortController14availablePortsEv
FN:40,_ZN20SerialPortController16internalOpenPortE7QString
FN:66,_ZN20SerialPortController23internalWriteDataOnPortE10QByteArray
FN:85,_ZN20SerialPortController9closePortEv
FN:93,__cxx_global_var_init.20
FN:94,_ZN20SerialPortController11onReadyReadEv
FNDA:0,_ZN20SerialPortController11onReadyReadEv
FNDA:0,_ZN20SerialPortControllerD2Ev
FNDA:0,_ZN20SerialPortControllerC1EP7QObject
FNDA:0,_ZN20SerialPortController9closePortEv
FNDA:0,_ZN20SerialPortController16internalOpenPortE7QString
FNDA:0,_ZN20SerialPortControllerC2EP7QObject
FNDA:1,_ZN20SerialPortController14availablePortsEv
FNDA:0,_ZN20SerialPortControllerD1Ev
FNDA:0,_ZN20SerialPortControllerD0Ev
FNDA:0,_ZN20SerialPortController23internalWriteDataOnPortE10QByteArray
FNDA:3,__cxx_global_var_init.20
FNF:11
FNH:2
DA:10,0
DA:11,0
DA:14,0
DA:15,0
DA:19,3
DA:20,1
DA:21,5
DA:23,1
DA:24,126
DA:26,30
DA:28,30
DA:29,70
DA:30,10
DA:33,0
DA:34,0
DA:35,20
DA:37,1
DA:38,2
DA:42,0
DA:44,0
DA:45,0
DA:46,0
DA:47,0
DA:50,0
DA:52,0
DA:53,0
DA:54,0
DA:55,0
DA:56,0
DA:57,0
DA:58,0
DA:59,0
DA:60,0
DA:61,0
DA:62,0
DA:64,0
DA:68,0
DA:69,0
DA:70,0
DA:73,0
DA:74,0
DA:75,0
DA:76,0
DA:77,0
DA:78,0
DA:79,0
DA:80,0
DA:83,0
DA:87,0
DA:88,0
DA:89,0
DA:90,0
DA:91,0
DA:93,6
DA:97,0
DA:99,0
DA:100,0
DA:101,0
DA:102,0
DA:103,0
DA:104,0
LF:61
LH:13
end_of_record
TN:
SF:/Users/tristan/Documents/Sources/BurgerQuiz/domain/Burger.cpp
FN:4,_ZN6BurgerC2Ev
FN:4,_ZN6BurgerC1Ev
FN:8,_ZN6BurgerD2Ev
FN:8,_ZN6BurgerD0Ev
FN:8,_ZN6BurgerD1Ev
FN:10,_ZN6BurgerC2ENS_4TeamE7QString
FN:10,_ZN6BurgerC1ENS_4TeamE7QString
FN:17,_ZN6Burger7setTeamENS_4TeamE
FN:22,_ZNK6Burger4teamEv
FN:27,_ZNK6Burger8portNameEv
FN:32,_ZN6Burger11setPortNameE7QString
FN:36,_ZNK6Burger8ledStateEv
FN:41,_ZN6Burger11setLedStateENS_8LedStateE
FN:46,_ZNK6Burger11burgerStateEv
FN:51,_ZN6Burger14setBurgerStateENS_11BurgerStateE
FN:56,_ZNK6Burger5validEv
FN:61,_ZNK6Burger7isReadyEv
FN:66,_ZN6Burger6enableEv
FN:71,_ZN6Burger7disableEv
FN:76,_ZNK6Burger9isEnabledEv
FNDA:0,_ZN6Burger11setLedStateENS_8LedStateE
FNDA:0,_ZNK6Burger8ledStateEv
FNDA:0,_ZNK6Burger11burgerStateEv
FNDA:0,_ZN6BurgerD1Ev
FNDA:0,_ZN6Burger7setTeamENS_4TeamE
FNDA:0,_ZNK6Burger8portNameEv
FNDA:0,_ZNK6Burger7isReadyEv
FNDA:0,_ZN6BurgerC1ENS_4TeamE7QString
FNDA:0,_ZN6Burger6enableEv
FNDA:0,_ZNK6Burger9isEnabledEv
FNDA:0,_ZN6Burger11setPortNameE7QString
FNDA:0,_ZNK6Burger5validEv
FNDA:0,_ZN6Burger14setBurgerStateENS_11BurgerStateE
FNDA:0,_ZN6BurgerC2ENS_4TeamE7QString
FNDA:0,_ZN6BurgerD0Ev
FNDA:0,_ZN6BurgerD2Ev
FNDA:0,_ZNK6Burger4teamEv
FNDA:0,_ZN6Burger7disableEv
FNDA:0,_ZN6BurgerC1Ev
FNDA:0,_ZN6BurgerC2Ev
FNF:20
FNH:0
DA:4,0
DA:5,0
DA:6,0
DA:8,0
DA:10,0
DA:11,0
DA:12,0
DA:13,0
DA:14,0
DA:15,0
DA:19,0
DA:20,0
DA:24,0
DA:29,0
DA:33,0
DA:34,0
DA:38,0
DA:43,0
DA:44,0
DA:48,0
DA:53,0
DA:54,0
DA:58,0
DA:63,0
DA:68,0
DA:69,0
DA:73,0
DA:74,0
DA:78,0
LF:29
LH:0
end_of_record
TN:
SF:/Users/tristan/Documents/Sources/BurgerQuiz/factories/MessageFactory.hpp
FN:16,_ZN14MessageFactory13messageHeaderEv
FN:26,_ZN14MessageFactory18messageTerminationEv
FN:38,_ZN14MessageFactory12getCommandIdENS_7MessageE
FN:47,_ZN14MessageFactory15makePingMessageEv
FN:62,_ZN14MessageFactory15makePongMessageEv
FN:77,_ZN14MessageFactory14makeLedMessageEN6Burger8LedStateE
FN:93,_ZN14MessageFactory24makeButtonPressedMessageEv
FN:104,_ZN14MessageFactory14isMessageValidER10QByteArray
FN:131,_ZN14MessageFactory19messageTypeFromDataER10QByteArray
FNDA:2,_ZN14MessageFactory24makeButtonPressedMessageEv
FNDA:20,_ZN14MessageFactory13messageHeaderEv
FNDA:2,_ZN14MessageFactory15makePingMessageEv
FNDA:2,_ZN14MessageFactory15makePongMessageEv
FNDA:7,_ZN14MessageFactory14isMessageValidER10QByteArray
FNDA:16,_ZN14MessageFactory12getCommandIdENS_7MessageE
FNDA:6,_ZN14MessageFactory14makeLedMessageEN6Burger8LedStateE
FNDA:19,_ZN14MessageFactory18messageTerminationEv
FNDA:7,_ZN14MessageFactory19messageTypeFromDataER10QByteArray
FNF:9
FNH:9
DA:18,40
DA:27,38
DA:40,16
DA:49,4
DA:50,6
DA:51,6
DA:52,2
DA:53,6
DA:55,2
DA:56,4
DA:64,4
DA:65,6
DA:66,6
DA:67,2
DA:68,6
DA:70,2
DA:71,4
DA:79,6
DA:80,18
DA:81,18
DA:82,6
DA:83,6
DA:84,18
DA:86,6
DA:87,12
DA:95,4
DA:96,6
DA:97,6
DA:98,2
DA:99,6
DA:101,2
DA:102,4
DA:106,7
DA:107,0
DA:108,0
DA:111,14
DA:112,5
DA:113,1
DA:116,12
DA:117,0
DA:118,0
DA:121,16
DA:122,0
DA:123,0
DA:128,6
DA:129,7
DA:133,7
DA:134,7
DA:135,1
DA:136,1
DA:137,3
DA:138,1
DA:140,1
DA:141,0
DA:144,1
DA:145,7
LF:56
LH:49
end_of_record
TN:
SF:/Users/tristan/Documents/Sources/BurgerQuiz/helpers/DebugHelper.hpp
FN:16,_ZN11DebugHelper17byteArrayToStringE10QByteArray
FN:23,_ZN11DebugHelper12teamToStringEN6Burger4TeamE
FNDA:8,_ZN11DebugHelper17byteArrayToStringE10QByteArray
FNDA:4,_ZN11DebugHelper12teamToStringEN6Burger4TeamE
FNF:2
FNH:2
DA:17,32
DA:18,0
DA:24,4
DA:25,1
DA:26,1
DA:27,1
DA:30,1
DA:31,4
LF:8
LH:7
end_of_record
