TN:
SF:/Applications/Developpement/Qt/5.11.0/clang_64/lib/QtCore.framework/Headers/qarraydata.h
FN:57,_ZN10QArrayData4dataEv
FN:123,_ZN10QArrayData10sharedNullEv
FN:206,_ZN15QTypedArrayDataIcE4dataEv
FN:206,_ZN15QTypedArrayDataItE4dataEv
FN:234,_ZN15QTypedArrayDataIcE10deallocateEP10QArrayData
FN:234,_ZN15QTypedArrayDataItE10deallocateEP10QArrayData
FN:255,_ZN15QTypedArrayDataItE10sharedNullEv
FN:255,_ZN15QTypedArrayDataIcE10sharedNullEv
FNDA:74,_ZN10QArrayData4dataEv
FNDA:18,_ZN10QArrayData10sharedNullEv
FNDA:61,_ZN15QTypedArrayDataIcE4dataEv
FNDA:13,_ZN15QTypedArrayDataItE4dataEv
FNDA:83,_ZN15QTypedArrayDataIcE10deallocateEP10QArrayData
FNDA:9,_ZN15QTypedArrayDataItE10deallocateEP10QArrayData
FNDA:12,_ZN15QTypedArrayDataIcE10sharedNullEv
FNDA:6,_ZN15QTypedArrayDataItE10sharedNullEv
FNF:8
FNH:8
DA:59,296
DA:61,74
DA:123,36
DA:206,74
DA:237,92
DA:238,92
DA:258,36
LF:7
LH:7
end_of_record
SF:/Applications/Developpement/Qt/5.11.0/clang_64/lib/QtCore.framework/Headers/qatomic_cxx11.h
FN:225,_ZN10QAtomicOpsIiE4loadIiEET_RKNSt3__16atomicIS2_EE
FN:263,_ZN10QAtomicOpsIiE3refIiEEbRNSt3__16atomicIT_EE
FN:269,_ZN10QAtomicOpsIiE5derefIiEEbRNSt3__16atomicIT_EE
FNDA:126,_ZN10QAtomicOpsIiE4loadIiEET_RKNSt3__16atomicIS2_EE
FNDA:7,_ZN10QAtomicOpsIiE3refIiEEbRNSt3__16atomicIT_EE
FNDA:111,_ZN10QAtomicOpsIiE5derefIiEEbRNSt3__16atomicIT_EE
FNF:3
FNH:3
DA:227,126
DA:265,7
DA:271,111
LF:3
LH:3
end_of_record
SF:/Applications/Developpement/Qt/5.11.0/clang_64/lib/QtCore.framework/Headers/qbasicatomic.h
FN:91,_ZNK19QBasicAtomicIntegerIiE4loadEv
FN:102,_ZN19QBasicAtomicIntegerIiE3refEv
FN:103,_ZN19QBasicAtomicIntegerIiE5derefEv
FNDA:126,_ZNK19QBasicAtomicIntegerIiE4loadEv
FNDA:7,_ZN19QBasicAtomicIntegerIiE3refEv
FNDA:111,_ZN19QBasicAtomicIntegerIiE5derefEv
FNF:3
FNH:3
DA:91,126
DA:102,14
DA:103,111
LF:3
LH:3
end_of_record
SF:/Applications/Developpement/Qt/5.11.0/clang_64/lib/QtCore.framework/Headers/qbytearray.h
FN:76,_Z8qstrnlenPKcj
FN:181,_ZN10QByteArrayaSEOS_
FN:265,_ZNO10QByteArray7toUpperEv
FN:434,_ZNK10QByteArray6lengthEv
FN:468,_ZN10QByteArrayC2Ev
FN:468,_ZN10QByteArrayC1Ev
FN:469,_ZN10QByteArrayD1Ev
FN:469,_ZN10QByteArrayD2Ev
FN:470,_ZNK10QByteArray4sizeEv
FN:473,_ZNK10QByteArray2atEi
FN:492,_ZNK10QByteArray9constDataEv
FN:498,_ZN10QByteArrayC1ERKS_
FN:498,_ZN10QByteArrayC2ERKS_
FN:529,_ZN8QByteRefC1ER10QByteArrayi
FN:529,_ZN8QByteRefC2ER10QByteArrayi
FN:533,_ZNK8QByteRefcvcEv
FN:555,_ZN10QByteArrayixEi
FN:603,_ZeqRK10QByteArrayS1_
FNDA:7,_Z8qstrnlenPKcj
FNDA:12,_ZN10QByteArrayaSEOS_
FNDA:7,_ZNO10QByteArray7toUpperEv
FNDA:12,_ZNK10QByteArray6lengthEv
FNDA:12,_ZN10QByteArrayC1Ev
FNDA:12,_ZN10QByteArrayC2Ev
FNDA:109,_ZN10QByteArrayD1Ev
FNDA:109,_ZN10QByteArrayD2Ev
FNDA:61,_ZNK10QByteArray4sizeEv
FNDA:16,_ZNK10QByteArray2atEi
FNDA:38,_ZNK10QByteArray9constDataEv
FNDA:7,_ZN10QByteArrayC1ERKS_
FNDA:7,_ZN10QByteArrayC2ERKS_
FNDA:7,_ZN8QByteRefC1ER10QByteArrayi
FNDA:7,_ZN8QByteRefC2ER10QByteArrayi
FNDA:7,_ZNK8QByteRefcvcEv
FNDA:7,_ZN10QByteArrayixEi
FNDA:6,_ZeqRK10QByteArrayS1_
FNF:18
FNH:18
DA:78,7
DA:79,7
DA:80,309
DA:81,72
DA:82,7
DA:83,7
DA:182,12
DA:266,7
DA:434,12
DA:468,24
DA:469,493
DA:471,61
DA:474,48
DA:493,38
DA:498,7
DA:499,14
DA:530,14
DA:534,21
DA:556,21
DA:604,54
LF:20
LH:20
end_of_record
SF:/Applications/Developpement/Qt/5.11.0/clang_64/lib/QtCore.framework/Headers/qdebug.h
FN:125,_ZN6QDebug10maybeSpaceEv
FN:153,_ZN6QDebuglsEPKc
FN:155,_ZN6QDebuglsERK7QString
FNDA:3,_ZN6QDebug10maybeSpaceEv
FNDA:2,_ZN6QDebuglsEPKc
FNDA:1,_ZN6QDebuglsERK7QString
FNF:3
FNH:3
DA:125,9
DA:153,4
DA:155,1
LF:3
LH:3
end_of_record
SF:/Applications/Developpement/Qt/5.11.0/clang_64/lib/QtCore.framework/Headers/qglobal.h
FN:911,_Z5qSwapIP15QTypedArrayDataIcEEvRT_S4_
FNDA:12,_Z5qSwapIP15QTypedArrayDataIcEEvRT_S4_
FNF:1
FNH:1
DA:915,12
DA:916,12
LF:2
LH:2
end_of_record
SF:/Applications/Developpement/Qt/5.11.0/clang_64/lib/QtCore.framework/Headers/qlogging.h
FN:68,_ZN18QMessageLogContextC1EPKciS1_S1_
FN:68,_ZN18QMessageLogContextC2EPKciS1_S1_
FN:91,_ZN14QMessageLoggerC1EPKciS1_
FN:91,_ZN14QMessageLoggerC2EPKciS1_
FNDA:1,_ZN18QMessageLogContextC1EPKciS1_S1_
FNDA:1,_ZN18QMessageLogContextC2EPKciS1_S1_
FNDA:1,_ZN14QMessageLoggerC1EPKciS1_
FNDA:1,_ZN14QMessageLoggerC2EPKciS1_
FNF:4
FNH:4
DA:69,2
DA:92,2
LF:2
LH:2
end_of_record
SF:/Applications/Developpement/Qt/5.11.0/clang_64/lib/QtCore.framework/Headers/qrefcount.h
FN:54,_ZN9QtPrivate8RefCount3refEv
FN:65,_ZN9QtPrivate8RefCount5derefEv
FNDA:7,_ZN9QtPrivate8RefCount3refEv
FNDA:119,_ZN9QtPrivate8RefCount5derefEv
FNF:2
FNH:2
DA:55,7
DA:57,7
DA:58,0
DA:60,7
DA:61,7
DA:62,7
DA:63,7
DA:66,119
DA:68,119
DA:69,0
DA:71,119
DA:72,8
DA:73,111
DA:74,119
LF:14
LH:12
end_of_record
SF:/Applications/Developpement/Qt/5.11.0/clang_64/lib/QtCore.framework/Headers/qscopedpointer.h
FN:116,_ZNK14QScopedPointerI11QObjectData21QScopedPointerDeleterIS0_EEptEv
FNDA:19,_ZNK14QScopedPointerI11QObjectData21QScopedPointerDeleterIS0_EEptEv
FNF:1
FNH:1
DA:118,19
LF:1
LH:1
end_of_record
SF:/Applications/Developpement/Qt/5.11.0/clang_64/lib/QtCore.framework/Headers/qstring.h
FN:239,_ZNK7QString4sizeEv
FN:544,_ZNO7QString8toLatin1Ev
FN:562,_ZN7QString10fromLatin1EPKci
FN:567,_ZN7QString8fromUtf8EPKci
FN:696,_ZN7QStringC1ERK10QByteArray
FN:696,_ZN7QStringC2ERK10QByteArray
FN:816,_ZNK7QString6isNullEv
FN:823,_ZN7QStringC1E14QStringDataPtr
FN:823,_ZN7QStringC2E14QStringDataPtr
FN:928,_ZNK7QString6lengthEv
FN:940,_ZNK7QString4dataEv
FN:944,_ZNK7QString9constDataEv
FN:1130,_ZN7QStringD1Ev
FN:1130,_ZN7QStringD2Ev
FN:1232,_ZNK7QStringeqEPKc
FNDA:12,_ZNK7QString4sizeEv
FNDA:1,_ZNO7QString8toLatin1Ev
FNDA:1,_ZN7QString10fromLatin1EPKci
FNDA:2,_ZN7QString8fromUtf8EPKci
FNDA:7,_ZN7QStringC1ERK10QByteArray
FNDA:7,_ZN7QStringC2ERK10QByteArray
FNDA:6,_ZNK7QString6isNullEv
FNDA:1,_ZN7QStringC1E14QStringDataPtr
FNDA:1,_ZN7QStringC2E14QStringDataPtr
FNDA:1,_ZNK7QString6lengthEv
FNDA:6,_ZNK7QString4dataEv
FNDA:7,_ZNK7QString9constDataEv
FNDA:10,_ZN7QStringD1Ev
FNDA:10,_ZN7QStringD2Ev
FNDA:6,_ZNK7QStringeqEPKc
FNF:15
FNH:15
DA:239,12
DA:545,1
DA:564,4
DA:565,1
DA:569,8
DA:697,7
DA:698,14
DA:816,6
DA:823,2
DA:929,1
DA:941,6
DA:945,7
DA:1130,48
DA:1233,6
LF:14
LH:14
end_of_record
SF:/Applications/Developpement/Qt/5.11.0/clang_64/lib/QtCore.framework/Headers/qstringview.h
FN:166,_ZN11QStringView10castHelperI5QCharEEPKDsPKT_
FN:178,_ZN11QStringViewC2I5QCharLb1EEEPKT_x
FN:178,_ZN11QStringViewC1I5QCharLb1EEEPKT_x
FN:207,_ZN11QStringViewC1I7QStringLb1EEERKT_
FNDA:6,_ZN11QStringView10castHelperI5QCharEEPKDsPKT_
FNDA:6,_ZN11QStringViewC1I5QCharLb1EEEPKT_x
FNDA:6,_ZN11QStringViewC2I5QCharLb1EEEPKT_x
FNDA:6,_ZN11QStringViewC1I7QStringLb1EEERKT_
FNF:4
FNH:4
DA:167,6
DA:179,30
DA:180,12
DA:208,42
LF:4
LH:4
end_of_record
SF:/Applications/Developpement/Qt/5.11.0/clang_64/lib/QtQml.framework/Headers/qqmldebug.h
FN:79,__cxx_global_var_init
FNDA:1,__cxx_global_var_init
FNF:1
FNH:1
DA:79,2
LF:1
LH:1
end_of_record
SF:/Applications/Developpement/Qt/5.11.0/clang_64/lib/QtTest.framework/Headers/qtest.h
FN:68,_ZN5QTest8toStringI11QStringViewEEPcRKT_
FN:73,_ZN5QTest8toStringI7QStringEEPcRKT_
FN:83,_ZN5QTest8toStringI10QByteArrayEEPcRKT_
FNDA:6,_ZN5QTest8toStringI11QStringViewEEPcRKT_
FNDA:6,_ZN5QTest8toStringI7QStringEEPcRKT_
FNDA:12,_ZN5QTest8toStringI10QByteArrayEEPcRKT_
FNF:3
FNH:3
DA:70,6
DA:75,6
DA:85,12
LF:3
LH:3
end_of_record
SF:/Applications/Developpement/Qt/5.11.0/clang_64/lib/QtTest.framework/Headers/qtestcase.h
FN:251,_ZN5QTest8Internal8toStringIN14MessageFactory7MessageEEENSt3__19enable_ifIXntsr9QtPrivate13IsQEnumHelperIT_EE5ValueEPcE4typeERKS6_
FN:259,_ZN5QTest8toStringIN14MessageFactory7MessageEEEPcRKT_
FN:337,_ZN5QTest8qCompareI10QByteArrayEEbRKT_S4_PKcS6_S6_i
FN:337,_ZN5QTest8qCompareIN14MessageFactory7MessageEEEbRKT_S5_PKcS7_S7_i
FN:394,_ZN5QTest8qCompareI7QStringA9_cEEbRKT_RKT0_PKcSA_SA_i
FN:394,_ZN5QTest8qCompareI7QStringA11_cEEbRKT_RKT0_PKcSA_SA_i
FNDA:14,_ZN5QTest8Internal8toStringIN14MessageFactory7MessageEEENSt3__19enable_ifIXntsr9QtPrivate13IsQEnumHelperIT_EE5ValueEPcE4typeERKS6_
FNDA:14,_ZN5QTest8toStringIN14MessageFactory7MessageEEEPcRKT_
FNDA:6,_ZN5QTest8qCompareI10QByteArrayEEbRKT_S4_PKcS6_S6_i
FNDA:7,_ZN5QTest8qCompareIN14MessageFactory7MessageEEEbRKT_S5_PKcS7_S7_i
FNDA:3,_ZN5QTest8qCompareI7QStringA9_cEEbRKT_RKT0_PKcSA_SA_i
FNDA:3,_ZN5QTest8qCompareI7QStringA11_cEEbRKT_RKT0_PKcSA_SA_i
FNF:6
FNH:6
DA:253,14
DA:261,14
DA:340,26
DA:341,13
DA:397,12
DA:398,6
LF:6
LH:6
end_of_record
SF:/Library/Developer/CommandLineTools/usr/include/c++/v1/atomic
FN:927,_ZNKSt3__113__atomic_baseIiLb0EE4loadENS_12memory_orderE
FN:1019,_ZNSt3__113__atomic_baseIiLb1EE9fetch_addEiNS_12memory_orderE
FN:1025,_ZNSt3__113__atomic_baseIiLb1EE9fetch_subEiNS_12memory_orderE
FN:1057,_ZNSt3__113__atomic_baseIiLb1EEppEv
FN:1061,_ZNSt3__113__atomic_baseIiLb1EEmmEv
FNDA:126,_ZNKSt3__113__atomic_baseIiLb0EE4loadENS_12memory_orderE
FNDA:7,_ZNSt3__113__atomic_baseIiLb1EE9fetch_addEiNS_12memory_orderE
FNDA:111,_ZNSt3__113__atomic_baseIiLb1EE9fetch_subEiNS_12memory_orderE
FNDA:7,_ZNSt3__113__atomic_baseIiLb1EEppEv
FNDA:111,_ZNSt3__113__atomic_baseIiLb1EEmmEv
FNF:5
FNH:5
DA:929,378
DA:1020,21
DA:1026,333
DA:1057,7
DA:1061,111
LF:5
LH:5
end_of_record
SF:/Library/Developer/CommandLineTools/usr/include/c++/v1/type_traits
FN:2290,_ZNSt3__14moveIRP15QTypedArrayDataIcEEEONS_16remove_referenceIT_E4typeEOS6_
FN:4589,_ZNSt3__14swapIP15QTypedArrayDataIcEEENS_9enable_ifIXaasr21is_move_constructibleIT_EE5valuesr18is_move_assignableIS5_EE5valueEvE4typeERS5_S8_
FNDA:36,_ZNSt3__14moveIRP15QTypedArrayDataIcEEEONS_16remove_referenceIT_E4typeEOS6_
FNDA:12,_ZNSt3__14swapIP15QTypedArrayDataIcEEENS_9enable_ifIXaasr21is_move_constructibleIT_EE5valuesr18is_move_assignableIS5_EE5valueEvE4typeERS5_S8_
FNF:2
FNH:2
DA:2293,36
DA:4592,12
DA:4593,12
DA:4594,12
DA:4595,12
LF:5
LH:5
end_of_record
SF:/Users/tristan/Documents/Sources/BurgerQuiz/factories/MessageFactory.hpp
FN:16,_ZN14MessageFactory13messageHeaderEv
FN:26,_ZN14MessageFactory18messageTerminationEv
FN:38,_ZN14MessageFactory12getCommandIdENS_7MessageE
FN:47,_ZN14MessageFactory15makePingMessageEv
FN:62,_ZN14MessageFactory15makePongMessageEv
FN:77,_ZN14MessageFactory14makeLedMessageEN6Burger8LedStateE
FN:93,_ZN14MessageFactory24makeButtonPressedMessageEv
FN:104,_ZN14MessageFactory14isMessageValidER10QByteArray
FN:131,_ZN14MessageFactory19messageTypeFromDataER10QByteArray
FNDA:20,_ZN14MessageFactory13messageHeaderEv
FNDA:19,_ZN14MessageFactory18messageTerminationEv
FNDA:16,_ZN14MessageFactory12getCommandIdENS_7MessageE
FNDA:2,_ZN14MessageFactory15makePingMessageEv
FNDA:2,_ZN14MessageFactory15makePongMessageEv
FNDA:6,_ZN14MessageFactory14makeLedMessageEN6Burger8LedStateE
FNDA:2,_ZN14MessageFactory24makeButtonPressedMessageEv
FNDA:7,_ZN14MessageFactory14isMessageValidER10QByteArray
FNDA:7,_ZN14MessageFactory19messageTypeFromDataER10QByteArray
FNF:9
FNH:9
DA:18,40
DA:27,38
DA:40,16
DA:49,4
DA:50,6
DA:51,6
DA:52,2
DA:53,6
DA:55,2
DA:56,4
DA:64,4
DA:65,6
DA:66,6
DA:67,2
DA:68,6
DA:70,2
DA:71,4
DA:79,6
DA:80,18
DA:81,18
DA:82,6
DA:83,6
DA:84,18
DA:86,6
DA:87,12
DA:95,4
DA:96,6
DA:97,6
DA:98,2
DA:99,6
DA:101,2
DA:102,4
DA:106,7
DA:107,0
DA:108,0
DA:111,14
DA:112,5
DA:113,1
DA:116,12
DA:117,0
DA:118,0
DA:121,16
DA:122,0
DA:123,0
DA:128,6
DA:129,7
DA:133,7
DA:134,7
DA:135,1
DA:136,1
DA:137,3
DA:138,1
DA:140,1
DA:141,0
DA:144,1
DA:145,7
LF:56
LH:49
end_of_record
SF:/Users/tristan/Documents/Sources/BurgerQuiz/helpers/DebugHelper.hpp
FN:16,_ZN11DebugHelper17byteArrayToStringE10QByteArray
FNDA:7,_ZN11DebugHelper17byteArrayToStringE10QByteArray
FNF:1
FNH:1
DA:17,28
DA:18,0
LF:2
LH:1
end_of_record
SF:/Users/tristan/Documents/Sources/BurgerQuiz/tests/tst_testmessagefactory/tst_testmessagefactory.cpp
FN:29,_ZN18TestMessageFactoryC2Ev
FN:29,_ZN18TestMessageFactoryC1Ev
FN:34,_ZN18TestMessageFactoryD2Ev
FN:34,_ZN18TestMessageFactoryD1Ev
FN:34,_ZN18TestMessageFactoryD0Ev
FN:39,_ZN18TestMessageFactory22test_caseMessageHeaderEv
FN:45,_ZN18TestMessageFactory26test_caseMessageTerminatorEv
FN:51,_ZN18TestMessageFactory21test_caseGetCommandIdEv
FN:59,_ZN18TestMessageFactory24test_caseMakePingMessageEv
FN:66,_ZN18TestMessageFactory24test_caseMakePongMessageEv
FN:73,_ZN18TestMessageFactory33test_caseMakeButtonPressedMessageEv
FN:80,_ZN18TestMessageFactory25test_caseMakeLedOnMessageEv
FN:87,_ZN18TestMessageFactory26test_caseMakeLedOffMessageEv
FN:94,_ZN18TestMessageFactory28test_caseMakeLedBlinkMessageEv
FN:101,_ZN18TestMessageFactory23test_caseIsValidMessageEv
FN:125,_ZN18TestMessageFactory28test_caseMessageTypeFromDataEv
FN:156,main
FNDA:1,_ZN18TestMessageFactoryC2Ev
FNDA:1,_ZN18TestMessageFactoryC1Ev
FNDA:1,_ZN18TestMessageFactoryD2Ev
FNDA:1,_ZN18TestMessageFactoryD1Ev
FNDA:0,_ZN18TestMessageFactoryD0Ev
FNDA:1,_ZN18TestMessageFactory22test_caseMessageHeaderEv
FNDA:1,_ZN18TestMessageFactory26test_caseMessageTerminatorEv
FNDA:1,_ZN18TestMessageFactory21test_caseGetCommandIdEv
FNDA:1,_ZN18TestMessageFactory24test_caseMakePingMessageEv
FNDA:1,_ZN18TestMessageFactory24test_caseMakePongMessageEv
FNDA:1,_ZN18TestMessageFactory33test_caseMakeButtonPressedMessageEv
FNDA:1,_ZN18TestMessageFactory25test_caseMakeLedOnMessageEv
FNDA:1,_ZN18TestMessageFactory26test_caseMakeLedOffMessageEv
FNDA:1,_ZN18TestMessageFactory28test_caseMakeLedBlinkMessageEv
FNDA:1,_ZN18TestMessageFactory23test_caseIsValidMessageEv
FNDA:1,_ZN18TestMessageFactory28test_caseMessageTypeFromDataEv
FNDA:1,main
FNF:17
FNH:16
DA:29,1
DA:30,3
DA:32,2
DA:35,1
DA:37,2
DA:41,1
DA:42,6
DA:43,3
DA:47,1
DA:48,6
DA:49,3
DA:53,5
DA:54,5
DA:55,5
DA:56,5
DA:57,1
DA:61,1
DA:62,6
DA:63,6
DA:64,3
DA:68,1
DA:69,6
DA:70,6
DA:71,3
DA:75,1
DA:76,6
DA:77,6
DA:78,3
DA:82,1
DA:83,6
DA:84,6
DA:85,3
DA:89,1
DA:90,6
DA:91,6
DA:92,3
DA:96,1
DA:97,6
DA:98,6
DA:99,3
DA:103,1
DA:104,6
DA:106,2
DA:107,6
DA:109,2
DA:110,6
DA:112,2
DA:113,6
DA:115,2
DA:116,6
DA:118,2
DA:119,6
DA:121,3
DA:122,6
DA:123,3
DA:127,2
DA:128,2
DA:129,5
DA:131,3
DA:132,2
DA:133,5
DA:135,3
DA:136,2
DA:137,5
DA:139,3
DA:140,2
DA:141,5
DA:143,3
DA:144,2
DA:145,5
DA:147,3
DA:148,2
DA:149,5
DA:151,3
DA:152,2
DA:153,5
DA:154,3
DA:156,3
LF:78
LH:78
end_of_record
SF:/tmp/build-tests-Desktop_Qt_5_11_0_clang_64bit-Debug/tst_testmessagefactory/tst_testmessagefactory.moc
FN:103,_ZN18TestMessageFactory18qt_static_metacallEP7QObjectN11QMetaObject4CallEiPPv
FN:132,_ZNK18TestMessageFactory10metaObjectEv
FN:137,_ZN18TestMessageFactory11qt_metacastEPKc
FN:145,_ZN18TestMessageFactory11qt_metacallEN11QMetaObject4CallEiPPv
FNDA:11,_ZN18TestMessageFactory18qt_static_metacallEP7QObjectN11QMetaObject4CallEiPPv
FNDA:19,_ZNK18TestMessageFactory10metaObjectEv
FNDA:0,_ZN18TestMessageFactory11qt_metacastEPKc
FNDA:0,_ZN18TestMessageFactory11qt_metacallEN11QMetaObject4CallEiPPv
FNF:4
FNH:2
DA:105,11
DA:106,11
DA:108,11
DA:109,1
DA:110,1
DA:111,1
DA:112,1
DA:113,1
DA:114,1
DA:115,1
DA:116,1
DA:117,1
DA:118,1
DA:119,1
DA:121,0
DA:122,11
DA:124,11
DA:134,57
DA:139,0
DA:140,0
DA:141,0
DA:142,0
DA:143,0
DA:147,0
DA:148,0
DA:149,0
DA:150,0
DA:151,0
DA:152,0
DA:153,0
DA:154,0
DA:155,0
DA:156,0
DA:157,0
DA:158,0
DA:159,0
DA:160,0
LF:37
LH:17
end_of_record
TN:
SF:/Applications/Developpement/Qt/5.11.0/clang_64/lib/QtCore.framework/Headers/qarraydata.h
FN:57,_ZN10QArrayData4dataEv
FN:123,_ZN10QArrayData10sharedNullEv
FN:206,_ZN15QTypedArrayDataItE4dataEv
FN:206,_ZN15QTypedArrayDataIcE4dataEv
FN:234,_ZN15QTypedArrayDataItE10deallocateEP10QArrayData
FN:234,_ZN15QTypedArrayDataIcE10deallocateEP10QArrayData
FN:255,_ZN15QTypedArrayDataItE10sharedNullEv
FN:255,_ZN15QTypedArrayDataIcE10sharedNullEv
FNDA:0,_ZN10QArrayData4dataEv
FNDA:0,_ZN10QArrayData10sharedNullEv
FNDA:0,_ZN15QTypedArrayDataItE4dataEv
FNDA:0,_ZN15QTypedArrayDataIcE4dataEv
FNDA:0,_ZN15QTypedArrayDataIcE10deallocateEP10QArrayData
FNDA:0,_ZN15QTypedArrayDataItE10deallocateEP10QArrayData
FNDA:0,_ZN15QTypedArrayDataIcE10sharedNullEv
FNDA:0,_ZN15QTypedArrayDataItE10sharedNullEv
FNF:8
FNH:0
DA:59,0
DA:61,0
DA:123,0
DA:206,0
DA:237,0
DA:238,0
DA:258,0
LF:7
LH:0
end_of_record
SF:/Applications/Developpement/Qt/5.11.0/clang_64/lib/QtCore.framework/Headers/qatomic.h
FN:60,_ZN14QAtomicIntegerIiEC2Ei
FN:162,_ZN10QAtomicIntC2Ei
FN:162,_ZN10QAtomicIntC1Ei
FNDA:0,_ZN14QAtomicIntegerIiEC2Ei
FNDA:0,_ZN10QAtomicIntC1Ei
FNDA:0,_ZN10QAtomicIntC2Ei
FNF:3
FNH:0
DA:60,0
DA:162,0
LF:2
LH:0
end_of_record
SF:/Applications/Developpement/Qt/5.11.0/clang_64/lib/QtCore.framework/Headers/qatomic_cxx11.h
FN:225,_ZN10QAtomicOpsIiE4loadIiEET_RKNSt3__16atomicIS2_EE
FN:263,_ZN10QAtomicOpsIiE3refIiEEbRNSt3__16atomicIT_EE
FN:269,_ZN10QAtomicOpsIiE5derefIiEEbRNSt3__16atomicIT_EE
FNDA:0,_ZN10QAtomicOpsIiE4loadIiEET_RKNSt3__16atomicIS2_EE
FNDA:0,_ZN10QAtomicOpsIiE3refIiEEbRNSt3__16atomicIT_EE
FNDA:0,_ZN10QAtomicOpsIiE5derefIiEEbRNSt3__16atomicIT_EE
FNF:3
FNH:0
DA:227,0
DA:265,0
DA:271,0
LF:3
LH:0
end_of_record
SF:/Applications/Developpement/Qt/5.11.0/clang_64/lib/QtCore.framework/Headers/qbasicatomic.h
FN:91,_ZNK19QBasicAtomicIntegerIiE4loadEv
FN:102,_ZN19QBasicAtomicIntegerIiE3refEv
FN:103,_ZN19QBasicAtomicIntegerIiE5derefEv
FN:209,_ZN19QBasicAtomicIntegerIiEC2Ei
FNDA:0,_ZNK19QBasicAtomicIntegerIiE4loadEv
FNDA:0,_ZN19QBasicAtomicIntegerIiE3refEv
FNDA:0,_ZN19QBasicAtomicIntegerIiE5derefEv
FNDA:0,_ZN19QBasicAtomicIntegerIiEC2Ei
FNF:4
FNH:0
DA:91,0
DA:102,0
DA:103,0
DA:209,0
LF:4
LH:0
end_of_record
SF:/Applications/Developpement/Qt/5.11.0/clang_64/lib/QtCore.framework/Headers/qbytearray.h
FN:76,_Z8qstrnlenPKcj
FN:265,_ZNO10QByteArray7toUpperEv
FN:468,_ZN10QByteArrayC2Ev
FN:468,_ZN10QByteArrayC1Ev
FN:469,_ZN10QByteArrayD1Ev
FN:469,_ZN10QByteArrayD2Ev
FN:470,_ZNK10QByteArray4sizeEv
FN:473,_ZNK10QByteArray2atEi
FN:490,_ZNK10QByteArray4dataEv
FN:492,_ZNK10QByteArray9constDataEv
FN:498,_ZN10QByteArrayC1ERKS_
FN:498,_ZN10QByteArrayC2ERKS_
FN:529,_ZN8QByteRefC2ER10QByteArrayi
FN:529,_ZN8QByteRefC1ER10QByteArrayi
FN:533,_ZNK8QByteRefcvcEv
FN:555,_ZN10QByteArrayixEi
FN:599,_ZNK10QByteArray8containsERKS_
FNDA:0,_Z8qstrnlenPKcj
FNDA:0,_ZNO10QByteArray7toUpperEv
FNDA:0,_ZN10QByteArrayC1Ev
FNDA:0,_ZN10QByteArrayC2Ev
FNDA:0,_ZN10QByteArrayD1Ev
FNDA:0,_ZN10QByteArrayD2Ev
FNDA:0,_ZNK10QByteArray4sizeEv
FNDA:0,_ZNK10QByteArray2atEi
FNDA:0,_ZNK10QByteArray4dataEv
FNDA:0,_ZNK10QByteArray9constDataEv
FNDA:0,_ZN10QByteArrayC1ERKS_
FNDA:0,_ZN10QByteArrayC2ERKS_
FNDA:0,_ZN8QByteRefC1ER10QByteArrayi
FNDA:0,_ZN8QByteRefC2ER10QByteArrayi
FNDA:0,_ZNK8QByteRefcvcEv
FNDA:0,_ZN10QByteArrayixEi
FNDA:0,_ZNK10QByteArray8containsERKS_
FNF:17
FNH:0
DA:78,0
DA:79,0
DA:80,0
DA:81,0
DA:82,0
DA:83,0
DA:266,0
DA:468,0
DA:469,0
DA:471,0
DA:474,0
DA:491,0
DA:493,0
DA:498,0
DA:499,0
DA:530,0
DA:534,0
DA:556,0
DA:600,0
LF:19
LH:0
end_of_record
SF:/Applications/Developpement/Qt/5.11.0/clang_64/lib/QtCore.framework/Headers/qchar.h
FN:53,_ZN11QLatin1CharC2Ec
FN:53,_ZN11QLatin1CharC1Ec
FN:55,_ZNK11QLatin1Char7unicodeEv
FN:88,_ZN5QCharC2E11QLatin1Char
FN:88,_ZN5QCharC1E11QLatin1Char
FNDA:0,_ZN11QLatin1CharC1Ec
FNDA:0,_ZN11QLatin1CharC2Ec
FNDA:0,_ZNK11QLatin1Char7unicodeEv
FNDA:0,_ZN5QCharC1E11QLatin1Char
FNDA:0,_ZN5QCharC2E11QLatin1Char
FNF:5
FNH:0
DA:53,0
DA:55,0
DA:88,0
LF:3
LH:0
end_of_record
SF:/Applications/Developpement/Qt/5.11.0/clang_64/lib/QtCore.framework/Headers/qdebug.h
FN:125,_ZN6QDebug10maybeSpaceEv
FN:145,_ZN6QDebuglsEi
FN:153,_ZN6QDebuglsEPKc
FN:155,_ZN6QDebuglsERK7QString
FN:160,_ZN6QDebuglsERK10QByteArray
FNDA:0,_ZN6QDebug10maybeSpaceEv
FNDA:0,_ZN6QDebuglsEi
FNDA:0,_ZN6QDebuglsEPKc
FNDA:0,_ZN6QDebuglsERK7QString
FNDA:0,_ZN6QDebuglsERK10QByteArray
FNF:5
FNH:0
DA:125,0
DA:145,0
DA:153,0
DA:155,0
DA:160,0
LF:5
LH:0
end_of_record
SF:/Applications/Developpement/Qt/5.11.0/clang_64/lib/QtCore.framework/Headers/qglobal.h
FN:911,_Z5qSwapIPN9QListData4DataEEvRT_S4_
FNDA:0,_Z5qSwapIPN9QListData4DataEEvRT_S4_
FNF:1
FNH:0
DA:915,0
DA:916,0
LF:2
LH:0
end_of_record
SF:/Applications/Developpement/Qt/5.11.0/clang_64/lib/QtCore.framework/Headers/qlist.h
FN:100,_ZN9QListData7disposeEv
FN:114,_ZNK9QListData7isEmptyEv
FN:116,_ZNK9QListData5beginEv
FN:117,_ZNK9QListData3endEv
FN:142,_ZN5QListI7QStringE4Node1tEv
FN:151,_ZN5QListI7QStringEC2Ev
FN:156,_ZN5QListI7QStringEC1EOS1_
FN:156,_ZN5QListI7QStringEC2EOS1_
FN:158,_ZN5QListI7QStringEaSEOS1_
FN:161,_ZN5QListI7QStringE4swapERS1_
FN:172,_ZN5QListI7QStringE6detachEv
FN:195,_ZNK5QListI7QStringE7isEmptyEv
FN:235,_ZN5QListI7QStringE8iteratorC1EPNS1_4NodeE
FN:235,_ZN5QListI7QStringE8iteratorC2EPNS1_4NodeE
FN:239,_ZN5QListI7QStringE8iteratorC1ERKS2_
FN:239,_ZN5QListI7QStringE8iteratorC2ERKS2_
FN:241,_ZNK5QListI7QStringE8iteratordeEv
FN:266,_ZN5QListI7QStringE8iteratormmEv
FN:268,_ZN5QListI7QStringE8iteratorpLEx
FN:287,_ZN5QListI7QStringE14const_iteratorC2EPNS1_4NodeE
FN:287,_ZN5QListI7QStringE14const_iteratorC1EPNS1_4NodeE
FN:322,_ZN5QListI7QStringE5beginEv
FN:325,_ZNK5QListI7QStringE10constBeginEv
FN:326,_ZN5QListI7QStringE3endEv
FN:329,_ZNK5QListI7QStringE8constEndEv
FN:348,_ZN5QListI7QStringE4lastEv
FN:352,_ZN5QListI7QStringE10removeLastEv
FN:412,_ZNK5QListI7QStringE15isValidIteratorERKNS1_8iteratorE
FN:449,_ZN5QListI7QStringE13node_destructEPNS1_4NodeE
FN:456,_ZN5QListI7QStringE9node_copyEPNS1_4NodeES3_S3_
FN:491,_ZN5QListI7QStringE13node_destructEPNS1_4NodeES3_
FN:528,_ZN5QListI7QStringE5eraseENS1_8iteratorE
FN:564,_ZN5QListI7QStringE8takeLastEv
FN:783,_ZN5QListI7QStringE13detach_helperEi
FN:800,_ZN5QListI7QStringE13detach_helperEv
FN:824,_ZN5QListI7QStringED2Ev
FN:824,_ZN5QListI7QStringED1Ev
FN:863,_ZN5QListI7QStringE7deallocEPN9QListData4DataE
FNDA:0,_ZN9QListData7disposeEv
FNDA:0,_ZNK9QListData7isEmptyEv
FNDA:0,_ZNK9QListData5beginEv
FNDA:0,_ZNK9QListData3endEv
FNDA:0,_ZN5QListI7QStringE4Node1tEv
FNDA:0,_ZN5QListI7QStringEC2Ev
FNDA:0,_ZN5QListI7QStringEC1EOS1_
FNDA:0,_ZN5QListI7QStringEC2EOS1_
FNDA:0,_ZN5QListI7QStringEaSEOS1_
FNDA:0,_ZN5QListI7QStringE4swapERS1_
FNDA:0,_ZN5QListI7QStringE6detachEv
FNDA:0,_ZNK5QListI7QStringE7isEmptyEv
FNDA:0,_ZN5QListI7QStringE8iteratorC1EPNS1_4NodeE
FNDA:0,_ZN5QListI7QStringE8iteratorC2EPNS1_4NodeE
FNDA:0,_ZN5QListI7QStringE8iteratorC1ERKS2_
FNDA:0,_ZN5QListI7QStringE8iteratorC2ERKS2_
FNDA:0,_ZNK5QListI7QStringE8iteratordeEv
FNDA:0,_ZN5QListI7QStringE8iteratormmEv
FNDA:0,_ZN5QListI7QStringE8iteratorpLEx
FNDA:0,_ZN5QListI7QStringE14const_iteratorC1EPNS1_4NodeE
FNDA:0,_ZN5QListI7QStringE14const_iteratorC2EPNS1_4NodeE
FNDA:0,_ZN5QListI7QStringE5beginEv
FNDA:0,_ZNK5QListI7QStringE10constBeginEv
FNDA:0,_ZN5QListI7QStringE3endEv
FNDA:0,_ZNK5QListI7QStringE8constEndEv
FNDA:0,_ZN5QListI7QStringE4lastEv
FNDA:0,_ZN5QListI7QStringE10removeLastEv
FNDA:0,_ZNK5QListI7QStringE15isValidIteratorERKNS1_8iteratorE
FNDA:0,_ZN5QListI7QStringE13node_destructEPNS1_4NodeE
FNDA:0,_ZN5QListI7QStringE9node_copyEPNS1_4NodeES3_S3_
FNDA:0,_ZN5QListI7QStringE13node_destructEPNS1_4NodeES3_
FNDA:0,_ZN5QListI7QStringE5eraseENS1_8iteratorE
FNDA:0,_ZN5QListI7QStringE8takeLastEv
FNDA:0,_ZN5QListI7QStringE13detach_helperEi
FNDA:0,_ZN5QListI7QStringE13detach_helperEv
FNDA:0,_ZN5QListI7QStringED2Ev
FNDA:0,_ZN5QListI7QStringED1Ev
FNDA:0,_ZN5QListI7QStringE7deallocEPN9QListData4DataE
FNF:38
FNH:0
DA:100,0
DA:114,0
DA:116,0
DA:117,0
DA:143,0
DA:144,0
DA:151,0
DA:157,0
DA:159,0
DA:161,0
DA:172,0
DA:195,0
DA:235,0
DA:239,0
DA:241,0
DA:266,0
DA:268,0
DA:287,0
DA:322,0
DA:325,0
DA:326,0
DA:329,0
DA:348,0
DA:352,0
DA:414,0
DA:452,0
DA:453,0
DA:458,0
DA:474,0
DA:475,0
DA:476,0
DA:477,0
DA:488,0
DA:496,0
DA:497,0
DA:530,0
DA:531,0
DA:532,0
DA:533,0
DA:534,0
DA:535,0
DA:536,0
DA:537,0
DA:565,0
DA:785,0
DA:786,0
DA:788,0
DA:789,0
DA:790,0
DA:791,0
DA:792,0
DA:793,0
DA:795,0
DA:796,0
DA:797,0
DA:802,0
DA:803,0
DA:825,0
DA:826,0
DA:827,0
DA:828,0
DA:865,0
DA:866,0
DA:867,0
DA:868,0
LF:65
LH:0
end_of_record
SF:/Applications/Developpement/Qt/5.11.0/clang_64/lib/QtCore.framework/Headers/qlogging.h
FN:68,_ZN18QMessageLogContextC2EPKciS1_S1_
FN:68,_ZN18QMessageLogContextC1EPKciS1_S1_
FN:91,_ZN14QMessageLoggerC2EPKciS1_
FN:91,_ZN14QMessageLoggerC1EPKciS1_
FNDA:0,_ZN18QMessageLogContextC1EPKciS1_S1_
FNDA:0,_ZN18QMessageLogContextC2EPKciS1_S1_
FNDA:0,_ZN14QMessageLoggerC1EPKciS1_
FNDA:0,_ZN14QMessageLoggerC2EPKciS1_
FNF:4
FNH:0
DA:69,0
DA:92,0
LF:2
LH:0
end_of_record
SF:/Applications/Developpement/Qt/5.11.0/clang_64/lib/QtCore.framework/Headers/qmetaobject.h
FN:172,_ZN11QMetaMethod10fromSignalIM16BurgerControllerFvvEEES_T_
FNDA:0,_ZN11QMetaMethod10fromSignalIM16BurgerControllerFvvEEES_T_
FNF:1
FNH:0
DA:177,0
DA:178,0
LF:2
LH:0
end_of_record
SF:/Applications/Developpement/Qt/5.11.0/clang_64/lib/QtCore.framework/Headers/qobject.h
FN:228,_ZN7QObject7connectIM14QAbstractStateFvNS1_14QPrivateSignalEEM16BurgerControllerFvvEEEN11QMetaObject10ConnectionEPKN9QtPrivate15FunctionPointerIT_E6ObjectESC_PKNSB_IT0_E6ObjectESH_N2Qt14ConnectionTypeE
FN:228,_ZN7QObject7connectIM20SerialPortControllerFv10QByteArrayEM16BurgerControllerFvS2_EEEN11QMetaObject10ConnectionEPKN9QtPrivate15FunctionPointerIT_E6ObjectESC_PKNSB_IT0_E6ObjectESH_N2Qt14ConnectionTypeE
FN:228,_ZN7QObject7connectIM20SerialPortControllerFvxEM16BurgerControllerFvyEEEN11QMetaObject10ConnectionEPKN9QtPrivate15FunctionPointerIT_E6ObjectESB_PKNSA_IT0_E6ObjectESG_N2Qt14ConnectionTypeE
FN:228,_ZN7QObject7connectIM20SerialPortControllerFvvEM16BurgerControllerFvvEEEN11QMetaObject10ConnectionEPKN9QtPrivate15FunctionPointerIT_E6ObjectESB_PKNSA_IT0_E6ObjectESG_N2Qt14ConnectionTypeE
FN:228,_ZN7QObject7connectIM6QTimerFvNS1_14QPrivateSignalEEM16BurgerControllerFvvEEEN11QMetaObject10ConnectionEPKN9QtPrivate15FunctionPointerIT_E6ObjectESC_PKNSB_IT0_E6ObjectESH_N2Qt14ConnectionTypeE
FN:499,_Z12qobject_castIP20SerialPortControllerET_P7QObject
FNDA:0,_ZN7QObject7connectIM6QTimerFvNS1_14QPrivateSignalEEM16BurgerControllerFvvEEEN11QMetaObject10ConnectionEPKN9QtPrivate15FunctionPointerIT_E6ObjectESC_PKNSB_IT0_E6ObjectESH_N2Qt14ConnectionTypeE
FNDA:0,_ZN7QObject7connectIM14QAbstractStateFvNS1_14QPrivateSignalEEM16BurgerControllerFvvEEEN11QMetaObject10ConnectionEPKN9QtPrivate15FunctionPointerIT_E6ObjectESC_PKNSB_IT0_E6ObjectESH_N2Qt14ConnectionTypeE
FNDA:0,_ZN7QObject7connectIM20SerialPortControllerFvvEM16BurgerControllerFvvEEEN11QMetaObject10ConnectionEPKN9QtPrivate15FunctionPointerIT_E6ObjectESB_PKNSA_IT0_E6ObjectESG_N2Qt14ConnectionTypeE
FNDA:0,_ZN7QObject7connectIM20SerialPortControllerFvxEM16BurgerControllerFvyEEEN11QMetaObject10ConnectionEPKN9QtPrivate15FunctionPointerIT_E6ObjectESB_PKNSA_IT0_E6ObjectESG_N2Qt14ConnectionTypeE
FNDA:0,_ZN7QObject7connectIM20SerialPortControllerFv10QByteArrayEM16BurgerControllerFvS2_EEEN11QMetaObject10ConnectionEPKN9QtPrivate15FunctionPointerIT_E6ObjectESC_PKNSB_IT0_E6ObjectESH_N2Qt14ConnectionTypeE
FNDA:0,_Z12qobject_castIP20SerialPortControllerET_P7QObject
FNF:6
FNH:0
DA:246,0
DA:247,0
DA:248,0
DA:250,0
DA:251,0
DA:252,0
DA:253,0
DA:254,0
DA:255,0
DA:504,0
LF:10
LH:0
end_of_record
SF:/Applications/Developpement/Qt/5.11.0/clang_64/lib/QtCore.framework/Headers/qobject_impl.h
FN:71,_ZN9QtPrivate15ConnectionTypesINS_4ListIJN14QAbstractState14QPrivateSignalEEEELb0EE5typesEv
FN:71,_ZN9QtPrivate15ConnectionTypesINS_4ListIJN6QTimer14QPrivateSignalEEEELb0EE5typesEv
FN:73,_ZN9QtPrivate15ConnectionTypesINS_4ListIJEEELb1EE5typesEv
FN:75,_ZN9QtPrivate15ConnectionTypesINS_4ListIJxEEELb1EE5typesEv
FN:75,_ZN9QtPrivate15ConnectionTypesINS_4ListIJ10QByteArrayEEELb1EE5typesEv
FNDA:0,_ZN9QtPrivate15ConnectionTypesINS_4ListIJN6QTimer14QPrivateSignalEEEELb0EE5typesEv
FNDA:0,_ZN9QtPrivate15ConnectionTypesINS_4ListIJN14QAbstractState14QPrivateSignalEEEELb0EE5typesEv
FNDA:0,_ZN9QtPrivate15ConnectionTypesINS_4ListIJEEELb1EE5typesEv
FNDA:0,_ZN9QtPrivate15ConnectionTypesINS_4ListIJxEEELb1EE5typesEv
FNDA:0,_ZN9QtPrivate15ConnectionTypesINS_4ListIJ10QByteArrayEEELb1EE5typesEv
FNF:5
FNH:0
DA:71,0
DA:73,0
DA:75,0
LF:3
LH:0
end_of_record
SF:/Applications/Developpement/Qt/5.11.0/clang_64/lib/QtCore.framework/Headers/qobjectdefs.h
FN:292,_ZN16QGenericArgumentC1EPKcPKv
FN:292,_ZN16QGenericArgumentC2EPKcPKv
FN:305,_ZN22QGenericReturnArgumentC2EPKcPv
FN:305,_ZN22QGenericReturnArgumentC1EPKcPv
FN:314,_ZN9QArgumentI7QStringEC1EPKcRKS0_
FN:314,_ZN9QArgumentI7QStringEC2EPKcRKS0_
FN:314,_ZN9QArgumentI10QByteArrayEC2EPKcRKS0_
FN:314,_ZN9QArgumentI10QByteArrayEC1EPKcRKS0_
FN:431,_ZN11QMetaObject12invokeMethodEP7QObjectPKcN2Qt14ConnectionTypeE16QGenericArgumentS6_S6_S6_S6_S6_S6_S6_S6_S6_
FNDA:0,_ZN16QGenericArgumentC1EPKcPKv
FNDA:0,_ZN16QGenericArgumentC2EPKcPKv
FNDA:0,_ZN22QGenericReturnArgumentC1EPKcPv
FNDA:0,_ZN22QGenericReturnArgumentC2EPKcPv
FNDA:0,_ZN9QArgumentI7QStringEC1EPKcRKS0_
FNDA:0,_ZN9QArgumentI7QStringEC2EPKcRKS0_
FNDA:0,_ZN9QArgumentI10QByteArrayEC1EPKcRKS0_
FNDA:0,_ZN9QArgumentI10QByteArrayEC2EPKcRKS0_
FNDA:0,_ZN11QMetaObject12invokeMethodEP7QObjectPKcN2Qt14ConnectionTypeE16QGenericArgumentS6_S6_S6_S6_S6_S6_S6_S6_S6_
FNF:9
FNH:0
DA:293,0
DA:306,0
DA:307,0
DA:315,0
DA:316,0
DA:444,0
DA:445,0
LF:7
LH:0
end_of_record
SF:/Applications/Developpement/Qt/5.11.0/clang_64/lib/QtCore.framework/Headers/qobjectdefs_impl.h
FN:88,_ZN9QtPrivate16ApplyReturnValueIvEC2EPv
FN:88,_ZN9QtPrivate16ApplyReturnValueIvEC1EPv
FN:133,_ZN9QtPrivate11FunctorCallINS_11IndexesListIJLi0EEEENS_4ListIJ10QByteArrayEEEvM16BurgerControllerFvS4_EE4callES8_PS6_PPv
FN:133,_ZN9QtPrivate11FunctorCallINS_11IndexesListIJEEENS_4ListIJEEEvM16BurgerControllerFvvEE4callES7_PS5_PPv
FN:133,_ZN9QtPrivate11FunctorCallINS_11IndexesListIJLi0EEEENS_4ListIJxEEEvM16BurgerControllerFvyEE4callES7_PS5_PPv
FN:166,_ZN9QtPrivate15FunctionPointerIM16BurgerControllerFv10QByteArrayEE4callINS_4ListIJS2_EEEvEEvS4_PS1_PPv
FN:166,_ZN9QtPrivate15FunctionPointerIM16BurgerControllerFvyEE4callINS_4ListIJxEEEvEEvS3_PS1_PPv
FN:166,_ZN9QtPrivate15FunctionPointerIM16BurgerControllerFvvEE4callINS_4ListIJEEEvEEvS3_PS1_PPv
FN:369,_ZN9QtPrivate15QSlotObjectBaseC2EPFviPS0_P7QObjectPPvPbE
FN:378,_ZN9QtPrivate15QSlotObjectBaseD2Ev
FN:385,_ZN9QtPrivate11QSlotObjectIM16BurgerControllerFvvENS_4ListIJEEEvED2Ev
FN:385,_ZN9QtPrivate11QSlotObjectIM16BurgerControllerFvyENS_4ListIJxEEEvED2Ev
FN:385,_ZN9QtPrivate11QSlotObjectIM16BurgerControllerFvvENS_4ListIJEEEvED1Ev
FN:385,_ZN9QtPrivate11QSlotObjectIM16BurgerControllerFv10QByteArrayENS_4ListIJS2_EEEvED2Ev
FN:385,_ZN9QtPrivate11QSlotObjectIM16BurgerControllerFvyENS_4ListIJxEEEvED1Ev
FN:385,_ZN9QtPrivate11QSlotObjectIM16BurgerControllerFv10QByteArrayENS_4ListIJS2_EEEvED1Ev
FN:389,_ZN9QtPrivate11QSlotObjectIM16BurgerControllerFvvENS_4ListIJEEEvE4implEiPNS_15QSlotObjectBaseEP7QObjectPPvPb
FN:389,_ZN9QtPrivate11QSlotObjectIM16BurgerControllerFvyENS_4ListIJxEEEvE4implEiPNS_15QSlotObjectBaseEP7QObjectPPvPb
FN:389,_ZN9QtPrivate11QSlotObjectIM16BurgerControllerFv10QByteArrayENS_4ListIJS2_EEEvE4implEiPNS_15QSlotObjectBaseEP7QObjectPPvPb
FN:405,_ZN9QtPrivate11QSlotObjectIM16BurgerControllerFvyENS_4ListIJxEEEvEC2ES3_
FN:405,_ZN9QtPrivate11QSlotObjectIM16BurgerControllerFvyENS_4ListIJxEEEvEC1ES3_
FN:405,_ZN9QtPrivate11QSlotObjectIM16BurgerControllerFv10QByteArrayENS_4ListIJS2_EEEvEC2ES4_
FN:405,_ZN9QtPrivate11QSlotObjectIM16BurgerControllerFvvENS_4ListIJEEEvEC1ES3_
FN:405,_ZN9QtPrivate11QSlotObjectIM16BurgerControllerFvvENS_4ListIJEEEvEC2ES3_
FN:405,_ZN9QtPrivate11QSlotObjectIM16BurgerControllerFv10QByteArrayENS_4ListIJS2_EEEvEC1ES4_
FNDA:0,_ZN9QtPrivate16ApplyReturnValueIvEC1EPv
FNDA:0,_ZN9QtPrivate16ApplyReturnValueIvEC2EPv
FNDA:0,_ZN9QtPrivate11FunctorCallINS_11IndexesListIJEEENS_4ListIJEEEvM16BurgerControllerFvvEE4callES7_PS5_PPv
FNDA:0,_ZN9QtPrivate11FunctorCallINS_11IndexesListIJLi0EEEENS_4ListIJxEEEvM16BurgerControllerFvyEE4callES7_PS5_PPv
FNDA:0,_ZN9QtPrivate11FunctorCallINS_11IndexesListIJLi0EEEENS_4ListIJ10QByteArrayEEEvM16BurgerControllerFvS4_EE4callES8_PS6_PPv
FNDA:0,_ZN9QtPrivate15FunctionPointerIM16BurgerControllerFvvEE4callINS_4ListIJEEEvEEvS3_PS1_PPv
FNDA:0,_ZN9QtPrivate15FunctionPointerIM16BurgerControllerFvyEE4callINS_4ListIJxEEEvEEvS3_PS1_PPv
FNDA:0,_ZN9QtPrivate15FunctionPointerIM16BurgerControllerFv10QByteArrayEE4callINS_4ListIJS2_EEEvEEvS4_PS1_PPv
FNDA:0,_ZN9QtPrivate15QSlotObjectBaseC2EPFviPS0_P7QObjectPPvPbE
FNDA:0,_ZN9QtPrivate15QSlotObjectBaseD2Ev
FNDA:0,_ZN9QtPrivate11QSlotObjectIM16BurgerControllerFvvENS_4ListIJEEEvED1Ev
FNDA:0,_ZN9QtPrivate11QSlotObjectIM16BurgerControllerFvvENS_4ListIJEEEvED2Ev
FNDA:0,_ZN9QtPrivate11QSlotObjectIM16BurgerControllerFvyENS_4ListIJxEEEvED1Ev
FNDA:0,_ZN9QtPrivate11QSlotObjectIM16BurgerControllerFvyENS_4ListIJxEEEvED2Ev
FNDA:0,_ZN9QtPrivate11QSlotObjectIM16BurgerControllerFv10QByteArrayENS_4ListIJS2_EEEvED1Ev
FNDA:0,_ZN9QtPrivate11QSlotObjectIM16BurgerControllerFv10QByteArrayENS_4ListIJS2_EEEvED2Ev
FNDA:0,_ZN9QtPrivate11QSlotObjectIM16BurgerControllerFvvENS_4ListIJEEEvE4implEiPNS_15QSlotObjectBaseEP7QObjectPPvPb
FNDA:0,_ZN9QtPrivate11QSlotObjectIM16BurgerControllerFvyENS_4ListIJxEEEvE4implEiPNS_15QSlotObjectBaseEP7QObjectPPvPb
FNDA:0,_ZN9QtPrivate11QSlotObjectIM16BurgerControllerFv10QByteArrayENS_4ListIJS2_EEEvE4implEiPNS_15QSlotObjectBaseEP7QObjectPPvPb
FNDA:0,_ZN9QtPrivate11QSlotObjectIM16BurgerControllerFvvENS_4ListIJEEEvEC1ES3_
FNDA:0,_ZN9QtPrivate11QSlotObjectIM16BurgerControllerFvvENS_4ListIJEEEvEC2ES3_
FNDA:0,_ZN9QtPrivate11QSlotObjectIM16BurgerControllerFvyENS_4ListIJxEEEvEC1ES3_
FNDA:0,_ZN9QtPrivate11QSlotObjectIM16BurgerControllerFvyENS_4ListIJxEEEvEC2ES3_
FNDA:0,_ZN9QtPrivate11QSlotObjectIM16BurgerControllerFv10QByteArrayENS_4ListIJS2_EEEvEC1ES4_
FNDA:0,_ZN9QtPrivate11QSlotObjectIM16BurgerControllerFv10QByteArrayENS_4ListIJS2_EEEvEC2ES4_
FNF:25
FNH:0
DA:88,0
DA:134,0
DA:135,0
DA:167,0
DA:168,0
DA:369,0
DA:378,0
DA:385,0
DA:391,0
DA:393,0
DA:394,0
DA:396,0
DA:397,0
DA:399,0
DA:400,0
DA:402,0
DA:403,0
DA:405,0
LF:18
LH:0
end_of_record
SF:/Applications/Developpement/Qt/5.11.0/clang_64/lib/QtCore.framework/Headers/qrefcount.h
FN:54,_ZN9QtPrivate8RefCount3refEv
FN:65,_ZN9QtPrivate8RefCount5derefEv
FN:99,_ZNK9QtPrivate8RefCount8isSharedEv
FNDA:0,_ZN9QtPrivate8RefCount3refEv
FNDA:0,_ZN9QtPrivate8RefCount5derefEv
FNDA:0,_ZNK9QtPrivate8RefCount8isSharedEv
FNF:3
FNH:0
DA:55,0
DA:57,0
DA:58,0
DA:60,0
DA:61,0
DA:62,0
DA:63,0
DA:66,0
DA:68,0
DA:69,0
DA:71,0
DA:72,0
DA:73,0
DA:74,0
DA:101,0
DA:102,0
LF:16
LH:0
end_of_record
SF:/Applications/Developpement/Qt/5.11.0/clang_64/lib/QtCore.framework/Headers/qstate.h
FN:89,_ZN6QState13addTransitionIM16BurgerControllerFvvEEEP17QSignalTransitionPKN9QtPrivate15FunctionPointerIT_E6ObjectES8_P14QAbstractState
FNDA:0,_ZN6QState13addTransitionIM16BurgerControllerFvvEEEP17QSignalTransitionPKN9QtPrivate15FunctionPointerIT_E6ObjectES8_P14QAbstractState
FNF:1
FNH:0
DA:92,0
DA:93,0
DA:94,0
LF:3
LH:0
end_of_record
SF:/Applications/Developpement/Qt/5.11.0/clang_64/lib/QtCore.framework/Headers/qstring.h
FN:234,_ZN7QStringC1EOS_
FN:234,_ZN7QStringC2EOS_
FN:437,_ZNO7QString7trimmedEv
FN:562,_ZN7QString10fromLatin1EPKci
FN:567,_ZN7QString8fromUtf8EPKci
FN:575,_ZN7QString10fromLatin1ERK10QByteArray
FN:577,_ZN7QString8fromUtf8ERK10QByteArray
FN:693,_ZN7QStringC1EPKc
FN:693,_ZN7QStringC2EPKc
FN:696,_ZN7QStringC1ERK10QByteArray
FN:696,_ZN7QStringC2ERK10QByteArray
FN:823,_ZN7QStringC1E14QStringDataPtr
FN:823,_ZN7QStringC2E14QStringDataPtr
FN:928,_ZNK7QString6lengthEv
FN:936,_ZNK7QString7isEmptyEv
FN:944,_ZNK7QString9constDataEv
FN:952,_ZN7QStringC2ERKS_
FN:952,_ZN7QStringC1ERKS_
FN:1129,_ZN7QStringC1Ev
FN:1129,_ZN7QStringC2Ev
FN:1130,_ZN7QStringD2Ev
FN:1130,_ZN7QStringD1Ev
FNDA:0,_ZN7QStringC1EOS_
FNDA:0,_ZN7QStringC2EOS_
FNDA:0,_ZNO7QString7trimmedEv
FNDA:0,_ZN7QString10fromLatin1EPKci
FNDA:0,_ZN7QString8fromUtf8EPKci
FNDA:0,_ZN7QString10fromLatin1ERK10QByteArray
FNDA:0,_ZN7QString8fromUtf8ERK10QByteArray
FNDA:0,_ZN7QStringC1EPKc
FNDA:0,_ZN7QStringC2EPKc
FNDA:0,_ZN7QStringC1ERK10QByteArray
FNDA:0,_ZN7QStringC2ERK10QByteArray
FNDA:0,_ZN7QStringC1E14QStringDataPtr
FNDA:0,_ZN7QStringC2E14QStringDataPtr
FNDA:0,_ZNK7QString6lengthEv
FNDA:0,_ZNK7QString7isEmptyEv
FNDA:0,_ZNK7QString9constDataEv
FNDA:0,_ZN7QStringC1ERKS_
FNDA:0,_ZN7QStringC2ERKS_
FNDA:0,_ZN7QStringC1Ev
FNDA:0,_ZN7QStringC2Ev
FNDA:0,_ZN7QStringD1Ev
FNDA:0,_ZN7QStringD2Ev
FNF:22
FNH:0
DA:234,0
DA:438,0
DA:564,0
DA:565,0
DA:569,0
DA:576,0
DA:578,0
DA:694,0
DA:695,0
DA:697,0
DA:698,0
DA:823,0
DA:929,0
DA:937,0
DA:945,0
DA:952,0
DA:953,0
DA:1129,0
DA:1130,0
LF:19
LH:0
end_of_record
SF:/Applications/Developpement/Qt/5.11.0/clang_64/lib/QtCore.framework/Headers/qstringlist.h
FN:69,_ZN19QListSpecialMethodsI7QStringED2Ev
FN:99,_ZN11QStringListD1Ev
FN:99,_ZN11QStringListaSEOS_
FN:99,_ZN11QStringListD2Ev
FN:103,_ZN11QStringListC2Ev
FN:103,_ZN11QStringListC1Ev
FNDA:0,_ZN19QListSpecialMethodsI7QStringED2Ev
FNDA:0,_ZN11QStringListD1Ev
FNDA:0,_ZN11QStringListaSEOS_
FNDA:0,_ZN11QStringListD2Ev
FNDA:0,_ZN11QStringListC1Ev
FNDA:0,_ZN11QStringListC2Ev
FNF:6
FNH:0
DA:69,0
DA:99,0
DA:103,0
LF:3
LH:0
end_of_record
SF:/Applications/Developpement/Qt/5.11.0/clang_64/lib/QtCore.framework/Headers/qtimer.h
FN:232,_ZN6QTimer13setSingleShotEb
FNDA:0,_ZN6QTimer13setSingleShotEb
FNF:1
FNH:0
DA:232,0
LF:1
LH:0
end_of_record
SF:/Applications/Developpement/Qt/5.11.0/clang_64/lib/QtQml.framework/Headers/qqmldebug.h
FN:79,__cxx_global_var_init
FNDA:1,__cxx_global_var_init
FNF:1
FNH:1
DA:79,2
LF:1
LH:1
end_of_record
SF:/Library/Developer/CommandLineTools/usr/include/c++/v1/atomic
FN:927,_ZNKSt3__113__atomic_baseIiLb0EE4loadENS_12memory_orderE
FN:985,_ZNSt3__113__atomic_baseIiLb0EEC2Ei
FN:1013,_ZNSt3__113__atomic_baseIiLb1EEC2Ei
FN:1019,_ZNSt3__113__atomic_baseIiLb1EE9fetch_addEiNS_12memory_orderE
FN:1025,_ZNSt3__113__atomic_baseIiLb1EE9fetch_subEiNS_12memory_orderE
FN:1057,_ZNSt3__113__atomic_baseIiLb1EEppEv
FN:1061,_ZNSt3__113__atomic_baseIiLb1EEmmEv
FN:1094,_ZNSt3__16atomicIiEC2Ei
FN:1094,_ZNSt3__16atomicIiEC1Ei
FNDA:0,_ZNKSt3__113__atomic_baseIiLb0EE4loadENS_12memory_orderE
FNDA:0,_ZNSt3__113__atomic_baseIiLb0EEC2Ei
FNDA:0,_ZNSt3__113__atomic_baseIiLb1EEC2Ei
FNDA:0,_ZNSt3__113__atomic_baseIiLb1EE9fetch_addEiNS_12memory_orderE
FNDA:0,_ZNSt3__113__atomic_baseIiLb1EE9fetch_subEiNS_12memory_orderE
FNDA:0,_ZNSt3__113__atomic_baseIiLb1EEppEv
FNDA:0,_ZNSt3__113__atomic_baseIiLb1EEmmEv
FNDA:0,_ZNSt3__16atomicIiEC1Ei
FNDA:0,_ZNSt3__16atomicIiEC2Ei
FNF:9
FNH:0
DA:929,0
DA:985,0
DA:1013,0
DA:1020,0
DA:1026,0
DA:1057,0
DA:1061,0
DA:1094,0
LF:8
LH:0
end_of_record
SF:/Library/Developer/CommandLineTools/usr/include/c++/v1/type_traits
FN:2290,_ZNSt3__14moveIR7QStringEEONS_16remove_referenceIT_E4typeEOS4_
FN:2290,_ZNSt3__14moveIR5QListI7QStringEEEONS_16remove_referenceIT_E4typeEOS6_
FN:2290,_ZNSt3__14moveIRPN9QListData4DataEEEONS_16remove_referenceIT_E4typeEOS6_
FN:4589,_ZNSt3__14swapIPN9QListData4DataEEENS_9enable_ifIXaasr21is_move_constructibleIT_EE5valuesr18is_move_assignableIS5_EE5valueEvE4typeERS5_S8_
FNDA:0,_ZNSt3__14moveIR5QListI7QStringEEEONS_16remove_referenceIT_E4typeEOS6_
FNDA:0,_ZNSt3__14moveIRPN9QListData4DataEEEONS_16remove_referenceIT_E4typeEOS6_
FNDA:0,_ZNSt3__14moveIR7QStringEEONS_16remove_referenceIT_E4typeEOS4_
FNDA:0,_ZNSt3__14swapIPN9QListData4DataEEENS_9enable_ifIXaasr21is_move_constructibleIT_EE5valuesr18is_move_assignableIS5_EE5valueEvE4typeERS5_S8_
FNF:4
FNH:0
DA:2293,0
DA:4592,0
DA:4593,0
DA:4594,0
DA:4595,0
LF:5
LH:0
end_of_record
SF:/Users/tristan/Documents/Sources/BurgerQuiz/controllers/BurgerController.cpp
FN:8,_ZN16BurgerControllerC1EP7QObject
FN:8,_ZN16BurgerControllerC2EP7QObject
FN:17,_ZN16BurgerControllerD1Ev
FN:17,_ZN16BurgerControllerD2Ev
FN:17,_ZN16BurgerControllerD0Ev
FN:29,_ZN16BurgerController22initializeStateMachineEv
FN:60,_ZN16BurgerController10findBurgerEv
FN:80,_ZN16BurgerController11tryNextPortEv
FN:93,_ZN16BurgerController12onPortOpenedEv
FN:103,_ZN16BurgerController15onPortNotOpenedEv
FN:109,_ZN16BurgerController13onDataWrittenEy
FN:114,_ZN16BurgerController14onDataReceivedE10QByteArray
FN:162,_ZN16BurgerController18onStateInitializedEv
FN:167,_ZN16BurgerController16onEtatPortOpenedEv
FN:189,_ZN16BurgerController14onEtatPingSentEv
FN:195,_ZN16BurgerController13onPingTimeoutEv
FN:203,_ZN16BurgerController18onEtatPongReceivedEv
FN:212,_ZN16BurgerController10onEtatPretEv
FN:217,_ZN16BurgerController19onEtatButtonPressedEv
FN:222,_ZN16BurgerController15onEtatDesactiveEv
FN:228,_ZN16BurgerController17onEtatSelectionneEv
FN:235,_ZN16BurgerController12onEtatErreurEv
FN:240,_ZN16BurgerController13startBlinkingEv
FN:248,_ZN16BurgerController12stopBlinkingEv
FNDA:0,_ZN16BurgerControllerC2EP7QObject
FNDA:0,_ZN16BurgerControllerC1EP7QObject
FNDA:0,_ZN16BurgerControllerD2Ev
FNDA:0,_ZN16BurgerControllerD1Ev
FNDA:0,_ZN16BurgerControllerD0Ev
FNDA:0,_ZN16BurgerController22initializeStateMachineEv
FNDA:0,_ZN16BurgerController10findBurgerEv
FNDA:0,_ZN16BurgerController11tryNextPortEv
FNDA:0,_ZN16BurgerController12onPortOpenedEv
FNDA:0,_ZN16BurgerController15onPortNotOpenedEv
FNDA:0,_ZN16BurgerController13onDataWrittenEy
FNDA:0,_ZN16BurgerController14onDataReceivedE10QByteArray
FNDA:0,_ZN16BurgerController18onStateInitializedEv
FNDA:0,_ZN16BurgerController16onEtatPortOpenedEv
FNDA:0,_ZN16BurgerController14onEtatPingSentEv
FNDA:0,_ZN16BurgerController13onPingTimeoutEv
FNDA:0,_ZN16BurgerController18onEtatPongReceivedEv
FNDA:0,_ZN16BurgerController10onEtatPretEv
FNDA:0,_ZN16BurgerController19onEtatButtonPressedEv
FNDA:0,_ZN16BurgerController15onEtatDesactiveEv
FNDA:0,_ZN16BurgerController17onEtatSelectionneEv
FNDA:0,_ZN16BurgerController12onEtatErreurEv
FNDA:0,_ZN16BurgerController13startBlinkingEv
FNDA:0,_ZN16BurgerController12stopBlinkingEv
FNF:24
FNH:0
DA:8,0
DA:9,0
DA:10,0
DA:11,0
DA:12,0
DA:15,0
DA:18,0
DA:19,0
DA:20,0
DA:21,0
DA:22,0
DA:23,0
DA:24,0
DA:25,0
DA:26,0
DA:27,0
DA:31,0
DA:32,0
DA:33,0
DA:34,0
DA:35,0
DA:36,0
DA:37,0
DA:38,0
DA:39,0
DA:40,0
DA:42,0
DA:43,0
DA:44,0
DA:45,0
DA:46,0
DA:48,0
DA:49,0
DA:50,0
DA:51,0
DA:52,0
DA:53,0
DA:54,0
DA:55,0
DA:56,0
DA:57,0
DA:58,0
DA:62,0
DA:63,0
DA:64,0
DA:65,0
DA:66,0
DA:67,0
DA:68,0
DA:70,0
DA:71,0
DA:72,0
DA:74,0
DA:76,0
DA:77,0
DA:78,0
DA:81,0
DA:82,0
DA:83,0
DA:86,0
DA:87,0
DA:89,0
DA:90,0
DA:91,0
DA:95,0
DA:96,0
DA:97,0
DA:100,0
DA:101,0
DA:105,0
DA:106,0
DA:107,0
DA:111,0
DA:112,0
DA:122,0
DA:125,0
DA:126,0
DA:127,0
DA:128,0
DA:129,0
DA:130,0
DA:131,0
DA:133,0
DA:134,0
DA:135,0
DA:138,0
DA:140,0
DA:141,0
DA:143,0
DA:147,0
DA:148,0
DA:149,0
DA:152,0
DA:153,0
DA:154,0
DA:155,0
DA:156,0
DA:157,0
DA:159,0
DA:160,0
DA:164,0
DA:165,0
DA:169,0
DA:171,0
DA:172,0
DA:174,0
DA:175,0
DA:177,0
DA:178,0
DA:179,0
DA:183,0
DA:185,0
DA:186,0
DA:187,0
DA:191,0
DA:192,0
DA:193,0
DA:197,0
DA:198,0
DA:199,0
DA:200,0
DA:201,0
DA:205,0
DA:207,0
DA:208,0
DA:209,0
DA:210,0
DA:214,0
DA:215,0
DA:219,0
DA:220,0
DA:224,0
DA:225,0
DA:226,0
DA:230,0
DA:231,0
DA:232,0
DA:233,0
DA:237,0
DA:238,0
DA:242,0
DA:243,0
DA:245,0
DA:246,0
DA:250,0
DA:251,0
DA:252,0
DA:268,0
DA:270,0
LF:149
LH:0
end_of_record
SF:/Users/tristan/Documents/Sources/BurgerQuiz/controllers/BurgerController.h
FN:86,_ZN16BurgerController12debugMessageE7QString
FNDA:0,_ZN16BurgerController12debugMessageE7QString
FNF:1
FNH:0
DA:87,0
DA:88,0
LF:2
LH:0
end_of_record
SF:/Users/tristan/Documents/Sources/BurgerQuiz/controllers/SerialPortController.h
FN:34,_ZNK20SerialPortController8portNameEv
FN:42,_ZN20SerialPortController8openPortE7QString
FN:53,_ZN20SerialPortController15writeDataOnPortE10QByteArray
FNDA:0,_ZNK20SerialPortController8portNameEv
FNDA:0,_ZN20SerialPortController8openPortE7QString
FNDA:0,_ZN20SerialPortController15writeDataOnPortE10QByteArray
FNF:3
FNH:0
DA:34,0
DA:43,0
DA:44,0
DA:54,0
DA:55,0
LF:5
LH:0
end_of_record
SF:/Users/tristan/Documents/Sources/BurgerQuiz/factories/MessageFactory.hpp
FN:16,_ZN14MessageFactory13messageHeaderEv
FN:26,_ZN14MessageFactory18messageTerminationEv
FN:38,_ZN14MessageFactory12getCommandIdENS_7MessageE
FN:47,_ZN14MessageFactory15makePingMessageEv
FN:77,_ZN14MessageFactory14makeLedMessageEN6Burger8LedStateE
FN:104,_ZN14MessageFactory14isMessageValidER10QByteArray
FN:131,_ZN14MessageFactory19messageTypeFromDataER10QByteArray
FNDA:0,_ZN14MessageFactory13messageHeaderEv
FNDA:0,_ZN14MessageFactory18messageTerminationEv
FNDA:0,_ZN14MessageFactory12getCommandIdENS_7MessageE
FNDA:0,_ZN14MessageFactory15makePingMessageEv
FNDA:0,_ZN14MessageFactory14makeLedMessageEN6Burger8LedStateE
FNDA:0,_ZN14MessageFactory14isMessageValidER10QByteArray
FNDA:0,_ZN14MessageFactory19messageTypeFromDataER10QByteArray
FNF:7
FNH:0
DA:18,0
DA:27,0
DA:40,0
DA:49,0
DA:50,0
DA:51,0
DA:52,0
DA:53,0
DA:55,0
DA:56,0
DA:79,0
DA:80,0
DA:81,0
DA:82,0
DA:83,0
DA:84,0
DA:86,0
DA:87,0
DA:106,0
DA:107,0
DA:108,0
DA:111,0
DA:112,0
DA:113,0
DA:116,0
DA:117,0
DA:118,0
DA:121,0
DA:122,0
DA:123,0
DA:128,0
DA:129,0
DA:133,0
DA:134,0
DA:135,0
DA:136,0
DA:137,0
DA:138,0
DA:140,0
DA:141,0
DA:144,0
DA:145,0
LF:42
LH:0
end_of_record
SF:/Users/tristan/Documents/Sources/BurgerQuiz/helpers/DebugHelper.hpp
FN:16,_ZN11DebugHelper17byteArrayToStringE10QByteArray
FN:23,_ZN11DebugHelper12teamToStringEN6Burger4TeamE
FNDA:0,_ZN11DebugHelper17byteArrayToStringE10QByteArray
FNDA:0,_ZN11DebugHelper12teamToStringEN6Burger4TeamE
FNF:2
FNH:0
DA:17,0
DA:18,0
DA:24,0
DA:25,0
DA:26,0
DA:27,0
DA:30,0
DA:31,0
LF:8
LH:0
end_of_record
TN:
SF:/Applications/Developpement/Qt/5.11.0/clang_64/lib/QtCore.framework/Headers/qarraydata.h
FN:57,_ZN10QArrayData4dataEv
FN:206,_ZN15QTypedArrayDataItE4dataEv
FN:234,_ZN15QTypedArrayDataItE10deallocateEP10QArrayData
FNDA:0,_ZN10QArrayData4dataEv
FNDA:0,_ZN15QTypedArrayDataItE4dataEv
FNDA:0,_ZN15QTypedArrayDataItE10deallocateEP10QArrayData
FNF:3
FNH:0
DA:59,0
DA:61,0
DA:206,0
DA:237,0
DA:238,0
LF:5
LH:0
end_of_record
SF:/Applications/Developpement/Qt/5.11.0/clang_64/lib/QtCore.framework/Headers/qatomic.h
FN:60,_ZN14QAtomicIntegerIiEC2Ei
FN:162,_ZN10QAtomicIntC2Ei
FN:162,_ZN10QAtomicIntC1Ei
FNDA:0,_ZN14QAtomicIntegerIiEC2Ei
FNDA:0,_ZN10QAtomicIntC1Ei
FNDA:0,_ZN10QAtomicIntC2Ei
FNF:3
FNH:0
DA:60,0
DA:162,0
LF:2
LH:0
end_of_record
SF:/Applications/Developpement/Qt/5.11.0/clang_64/lib/QtCore.framework/Headers/qatomic_cxx11.h
FN:225,_ZN10QAtomicOpsIiE4loadIiEET_RKNSt3__16atomicIS2_EE
FN:263,_ZN10QAtomicOpsIiE3refIiEEbRNSt3__16atomicIT_EE
FN:269,_ZN10QAtomicOpsIiE5derefIiEEbRNSt3__16atomicIT_EE
FNDA:0,_ZN10QAtomicOpsIiE4loadIiEET_RKNSt3__16atomicIS2_EE
FNDA:0,_ZN10QAtomicOpsIiE3refIiEEbRNSt3__16atomicIT_EE
FNDA:0,_ZN10QAtomicOpsIiE5derefIiEEbRNSt3__16atomicIT_EE
FNF:3
FNH:0
DA:227,0
DA:265,0
DA:271,0
LF:3
LH:0
end_of_record
SF:/Applications/Developpement/Qt/5.11.0/clang_64/lib/QtCore.framework/Headers/qbasicatomic.h
FN:91,_ZNK19QBasicAtomicIntegerIiE4loadEv
FN:102,_ZN19QBasicAtomicIntegerIiE3refEv
FN:103,_ZN19QBasicAtomicIntegerIiE5derefEv
FN:209,_ZN19QBasicAtomicIntegerIiEC2Ei
FNDA:0,_ZNK19QBasicAtomicIntegerIiE4loadEv
FNDA:0,_ZN19QBasicAtomicIntegerIiE3refEv
FNDA:0,_ZN19QBasicAtomicIntegerIiE5derefEv
FNDA:0,_ZN19QBasicAtomicIntegerIiEC2Ei
FNF:4
FNH:0
DA:91,0
DA:102,0
DA:103,0
DA:209,0
LF:4
LH:0
end_of_record
SF:/Applications/Developpement/Qt/5.11.0/clang_64/lib/QtCore.framework/Headers/qdebug.h
FN:125,_ZN6QDebug10maybeSpaceEv
FN:153,_ZN6QDebuglsEPKc
FN:155,_ZN6QDebuglsERK7QString
FNDA:0,_ZN6QDebug10maybeSpaceEv
FNDA:0,_ZN6QDebuglsEPKc
FNDA:0,_ZN6QDebuglsERK7QString
FNF:3
FNH:0
DA:125,0
DA:153,0
DA:155,0
LF:3
LH:0
end_of_record
SF:/Applications/Developpement/Qt/5.11.0/clang_64/lib/QtCore.framework/Headers/qlogging.h
FN:68,_ZN18QMessageLogContextC2EPKciS1_S1_
FN:68,_ZN18QMessageLogContextC1EPKciS1_S1_
FN:91,_ZN14QMessageLoggerC1EPKciS1_
FN:91,_ZN14QMessageLoggerC2EPKciS1_
FNDA:0,_ZN18QMessageLogContextC1EPKciS1_S1_
FNDA:0,_ZN18QMessageLogContextC2EPKciS1_S1_
FNDA:0,_ZN14QMessageLoggerC1EPKciS1_
FNDA:0,_ZN14QMessageLoggerC2EPKciS1_
FNF:4
FNH:0
DA:69,0
DA:92,0
LF:2
LH:0
end_of_record
SF:/Applications/Developpement/Qt/5.11.0/clang_64/lib/QtCore.framework/Headers/qmutex.h
FN:199,_ZN12QMutexLockerC2EP11QBasicMutex
FN:199,_ZN12QMutexLockerC1EP11QBasicMutex
FN:213,_ZN12QMutexLockerD2Ev
FN:213,_ZN12QMutexLockerD1Ev
FN:215,_ZN12QMutexLocker6unlockEv
FN:238,_ZNK12QMutexLocker5mutexEv
FNDA:0,_ZN12QMutexLockerC1EP11QBasicMutex
FNDA:0,_ZN12QMutexLockerC2EP11QBasicMutex
FNDA:0,_ZN12QMutexLockerD1Ev
FNDA:0,_ZN12QMutexLockerD2Ev
FNDA:0,_ZN12QMutexLocker6unlockEv
FNDA:0,_ZNK12QMutexLocker5mutexEv
FNF:6
FNH:0
DA:200,0
DA:201,0
DA:203,0
DA:204,0
DA:206,0
DA:207,0
DA:208,0
DA:209,0
DA:213,0
DA:217,0
DA:218,0
DA:219,0
DA:220,0
DA:221,0
DA:240,0
LF:15
LH:0
end_of_record
SF:/Applications/Developpement/Qt/5.11.0/clang_64/lib/QtCore.framework/Headers/qobject.h
FN:228,_ZN7QObject7connectIM16BurgerControllerFvvEM14GameControllerFvvEEEN11QMetaObject10ConnectionEPKN9QtPrivate15FunctionPointerIT_E6ObjectESB_PKNSA_IT0_E6ObjectESG_N2Qt14ConnectionTypeE
FN:228,_ZN7QObject7connectIM14GameControllerFvvES3_EEN11QMetaObject10ConnectionEPKN9QtPrivate15FunctionPointerIT_E6ObjectES8_PKNS7_IT0_E6ObjectESD_N2Qt14ConnectionTypeE
FN:408,_ZNK7QObject6parentEv
FN:499,_Z12qobject_castIP16BurgerControllerET_P7QObject
FNDA:0,_ZN7QObject7connectIM16BurgerControllerFvvEM14GameControllerFvvEEEN11QMetaObject10ConnectionEPKN9QtPrivate15FunctionPointerIT_E6ObjectESB_PKNSA_IT0_E6ObjectESG_N2Qt14ConnectionTypeE
FNDA:0,_ZN7QObject7connectIM14GameControllerFvvES3_EEN11QMetaObject10ConnectionEPKN9QtPrivate15FunctionPointerIT_E6ObjectES8_PKNS7_IT0_E6ObjectESD_N2Qt14ConnectionTypeE
FNDA:0,_ZNK7QObject6parentEv
FNDA:0,_Z12qobject_castIP16BurgerControllerET_P7QObject
FNF:4
FNH:0
DA:246,0
DA:247,0
DA:248,0
DA:250,0
DA:251,0
DA:252,0
DA:253,0
DA:254,0
DA:255,0
DA:408,0
DA:504,0
LF:11
LH:0
end_of_record
SF:/Applications/Developpement/Qt/5.11.0/clang_64/lib/QtCore.framework/Headers/qobject_impl.h
FN:73,_ZN9QtPrivate15ConnectionTypesINS_4ListIJEEELb1EE5typesEv
FNDA:0,_ZN9QtPrivate15ConnectionTypesINS_4ListIJEEELb1EE5typesEv
FNF:1
FNH:0
DA:73,0
LF:1
LH:0
end_of_record
SF:/Applications/Developpement/Qt/5.11.0/clang_64/lib/QtCore.framework/Headers/qobjectdefs_impl.h
FN:88,_ZN9QtPrivate16ApplyReturnValueIvEC1EPv
FN:88,_ZN9QtPrivate16ApplyReturnValueIvEC2EPv
FN:133,_ZN9QtPrivate11FunctorCallINS_11IndexesListIJEEENS_4ListIJEEEvM14GameControllerFvvEE4callES7_PS5_PPv
FN:166,_ZN9QtPrivate15FunctionPointerIM14GameControllerFvvEE4callINS_4ListIJEEEvEEvS3_PS1_PPv
FN:369,_ZN9QtPrivate15QSlotObjectBaseC2EPFviPS0_P7QObjectPPvPbE
FN:378,_ZN9QtPrivate15QSlotObjectBaseD2Ev
FN:385,_ZN9QtPrivate11QSlotObjectIM14GameControllerFvvENS_4ListIJEEEvED2Ev
FN:385,_ZN9QtPrivate11QSlotObjectIM14GameControllerFvvENS_4ListIJEEEvED1Ev
FN:389,_ZN9QtPrivate11QSlotObjectIM14GameControllerFvvENS_4ListIJEEEvE4implEiPNS_15QSlotObjectBaseEP7QObjectPPvPb
FN:405,_ZN9QtPrivate11QSlotObjectIM14GameControllerFvvENS_4ListIJEEEvEC1ES3_
FN:405,_ZN9QtPrivate11QSlotObjectIM14GameControllerFvvENS_4ListIJEEEvEC2ES3_
FNDA:0,_ZN9QtPrivate16ApplyReturnValueIvEC1EPv
FNDA:0,_ZN9QtPrivate16ApplyReturnValueIvEC2EPv
FNDA:0,_ZN9QtPrivate11FunctorCallINS_11IndexesListIJEEENS_4ListIJEEEvM14GameControllerFvvEE4callES7_PS5_PPv
FNDA:0,_ZN9QtPrivate15FunctionPointerIM14GameControllerFvvEE4callINS_4ListIJEEEvEEvS3_PS1_PPv
FNDA:0,_ZN9QtPrivate15QSlotObjectBaseC2EPFviPS0_P7QObjectPPvPbE
FNDA:0,_ZN9QtPrivate15QSlotObjectBaseD2Ev
FNDA:0,_ZN9QtPrivate11QSlotObjectIM14GameControllerFvvENS_4ListIJEEEvED1Ev
FNDA:0,_ZN9QtPrivate11QSlotObjectIM14GameControllerFvvENS_4ListIJEEEvED2Ev
FNDA:0,_ZN9QtPrivate11QSlotObjectIM14GameControllerFvvENS_4ListIJEEEvE4implEiPNS_15QSlotObjectBaseEP7QObjectPPvPb
FNDA:0,_ZN9QtPrivate11QSlotObjectIM14GameControllerFvvENS_4ListIJEEEvEC1ES3_
FNDA:0,_ZN9QtPrivate11QSlotObjectIM14GameControllerFvvENS_4ListIJEEEvEC2ES3_
FNF:11
FNH:0
DA:88,0
DA:134,0
DA:135,0
DA:167,0
DA:168,0
DA:369,0
DA:378,0
DA:385,0
DA:391,0
DA:393,0
DA:394,0
DA:396,0
DA:397,0
DA:399,0
DA:400,0
DA:402,0
DA:403,0
DA:405,0
LF:18
LH:0
end_of_record
SF:/Applications/Developpement/Qt/5.11.0/clang_64/lib/QtCore.framework/Headers/qrefcount.h
FN:65,_ZN9QtPrivate8RefCount5derefEv
FNDA:0,_ZN9QtPrivate8RefCount5derefEv
FNF:1
FNH:0
DA:66,0
DA:68,0
DA:69,0
DA:71,0
DA:72,0
DA:73,0
DA:74,0
LF:7
LH:0
end_of_record
SF:/Applications/Developpement/Qt/5.11.0/clang_64/lib/QtCore.framework/Headers/qscopedpointer.h
FN:116,_ZNK14QScopedPointerI11QObjectData21QScopedPointerDeleterIS0_EEptEv
FNDA:0,_ZNK14QScopedPointerI11QObjectData21QScopedPointerDeleterIS0_EEptEv
FNF:1
FNH:0
DA:118,0
LF:1
LH:0
end_of_record
SF:/Applications/Developpement/Qt/5.11.0/clang_64/lib/QtCore.framework/Headers/qshareddata.h
FN:172,_ZN28QExplicitlySharedDataPointerI10BurgerDataEC1ERKS1_
FN:172,_ZN28QExplicitlySharedDataPointerI10BurgerDataEC2ERKS1_
FNDA:0,_ZN28QExplicitlySharedDataPointerI10BurgerDataEC1ERKS1_
FNDA:0,_ZN28QExplicitlySharedDataPointerI10BurgerDataEC2ERKS1_
FNF:2
FNH:0
DA:172,0
LF:1
LH:0
end_of_record
SF:/Applications/Developpement/Qt/5.11.0/clang_64/lib/QtCore.framework/Headers/qstring.h
FN:567,_ZN7QString8fromUtf8EPKci
FN:693,_ZN7QStringC1EPKc
FN:693,_ZN7QStringC2EPKc
FN:928,_ZNK7QString6lengthEv
FN:944,_ZNK7QString9constDataEv
FN:1130,_ZN7QStringD1Ev
FN:1130,_ZN7QStringD2Ev
FNDA:0,_ZN7QString8fromUtf8EPKci
FNDA:0,_ZN7QStringC1EPKc
FNDA:0,_ZN7QStringC2EPKc
FNDA:0,_ZNK7QString6lengthEv
FNDA:0,_ZNK7QString9constDataEv
FNDA:0,_ZN7QStringD1Ev
FNDA:0,_ZN7QStringD2Ev
FNF:7
FNH:0
DA:569,0
DA:694,0
DA:695,0
DA:929,0
DA:945,0
DA:1130,0
LF:6
LH:0
end_of_record
SF:/Applications/Developpement/Qt/5.11.0/clang_64/lib/QtQml.framework/Headers/qqmldebug.h
FN:79,__cxx_global_var_init
FNDA:1,__cxx_global_var_init
FNF:1
FNH:1
DA:79,2
LF:1
LH:1
end_of_record
SF:/Library/Developer/CommandLineTools/usr/include/c++/v1/atomic
FN:927,_ZNKSt3__113__atomic_baseIiLb0EE4loadENS_12memory_orderE
FN:985,_ZNSt3__113__atomic_baseIiLb0EEC2Ei
FN:1013,_ZNSt3__113__atomic_baseIiLb1EEC2Ei
FN:1019,_ZNSt3__113__atomic_baseIiLb1EE9fetch_addEiNS_12memory_orderE
FN:1025,_ZNSt3__113__atomic_baseIiLb1EE9fetch_subEiNS_12memory_orderE
FN:1057,_ZNSt3__113__atomic_baseIiLb1EEppEv
FN:1061,_ZNSt3__113__atomic_baseIiLb1EEmmEv
FN:1094,_ZNSt3__16atomicIiEC2Ei
FN:1094,_ZNSt3__16atomicIiEC1Ei
FNDA:0,_ZNKSt3__113__atomic_baseIiLb0EE4loadENS_12memory_orderE
FNDA:0,_ZNSt3__113__atomic_baseIiLb0EEC2Ei
FNDA:0,_ZNSt3__113__atomic_baseIiLb1EEC2Ei
FNDA:0,_ZNSt3__113__atomic_baseIiLb1EE9fetch_addEiNS_12memory_orderE
FNDA:0,_ZNSt3__113__atomic_baseIiLb1EE9fetch_subEiNS_12memory_orderE
FNDA:0,_ZNSt3__113__atomic_baseIiLb1EEppEv
FNDA:0,_ZNSt3__113__atomic_baseIiLb1EEmmEv
FNDA:0,_ZNSt3__16atomicIiEC1Ei
FNDA:0,_ZNSt3__16atomicIiEC2Ei
FNF:9
FNH:0
DA:929,0
DA:985,0
DA:1013,0
DA:1020,0
DA:1026,0
DA:1057,0
DA:1061,0
DA:1094,0
LF:8
LH:0
end_of_record
SF:/Users/tristan/Documents/Sources/BurgerQuiz/controllers/BurgerController.h
FN:94,_ZNK16BurgerController13isInitializedEv
FN:101,_ZNK16BurgerController6burgerEv
FN:106,_ZN16BurgerController7setTeamEN6Burger4TeamE
FN:111,_ZNK16BurgerController4teamEv
FNDA:0,_ZNK16BurgerController13isInitializedEv
FNDA:0,_ZNK16BurgerController6burgerEv
FNDA:0,_ZN16BurgerController7setTeamEN6Burger4TeamE
FNDA:0,_ZNK16BurgerController4teamEv
FNF:4
FNH:0
DA:95,0
DA:101,0
DA:106,0
DA:111,0
LF:4
LH:0
end_of_record
SF:/Users/tristan/Documents/Sources/BurgerQuiz/controllers/GameController.cpp
FN:12,_ZN14GameControllerC2EP7QObject
FN:12,_ZN14GameControllerC1EP7QObject
FN:26,_ZNK14GameController7isReadyEv
FN:30,_ZN14GameController10initializeEv
FN:38,_ZN14GameController13onBurgerReadyEv
FN:58,_ZN14GameController16findSecondBurgerEv
FN:66,__cxx_global_var_init.9
FN:67,_ZN14GameController15onButtonPressedEv
FN:101,_ZN14GameController18onGameStateChangedEv
FNDA:0,_ZN14GameControllerC2EP7QObject
FNDA:0,_ZN14GameControllerC1EP7QObject
FNDA:0,_ZNK14GameController7isReadyEv
FNDA:0,_ZN14GameController10initializeEv
FNDA:0,_ZN14GameController13onBurgerReadyEv
FNDA:0,_ZN14GameController16findSecondBurgerEv
FNDA:1,__cxx_global_var_init.9
FNDA:0,_ZN14GameController15onButtonPressedEv
FNDA:0,_ZN14GameController18onGameStateChangedEv
FNF:9
FNH:1
DA:13,0
DA:14,0
DA:15,0
DA:16,0
DA:17,0
DA:18,0
DA:19,0
DA:20,0
DA:21,0
DA:22,0
DA:23,0
DA:24,0
DA:27,0
DA:28,0
DA:32,0
DA:34,0
DA:35,0
DA:36,0
DA:40,0
DA:41,0
DA:42,0
DA:43,0
DA:45,0
DA:46,0
DA:48,0
DA:49,0
DA:50,0
DA:51,0
DA:52,0
DA:54,0
DA:56,0
DA:60,0
DA:61,0
DA:62,0
DA:66,2
DA:70,0
DA:72,0
DA:73,0
DA:74,0
DA:77,0
DA:78,0
DA:79,0
DA:82,0
DA:84,0
DA:85,0
DA:88,0
DA:89,0
DA:91,0
DA:92,0
DA:93,0
DA:95,0
DA:96,0
DA:98,0
DA:99,0
DA:103,0
DA:104,0
DA:116,0
LF:57
LH:1
end_of_record
SF:/Users/tristan/Documents/Sources/BurgerQuiz/controllers/GameController.h
FN:57,_ZNK14GameController23initializedBurgersCountEv
FNDA:0,_ZNK14GameController23initializedBurgersCountEv
FNF:1
FNH:0
DA:58,0
DA:59,0
DA:60,0
DA:61,0
DA:62,0
DA:63,0
LF:6
LH:0
end_of_record
SF:/Users/tristan/Documents/Sources/BurgerQuiz/domain/Burger.h
FN:60,_ZN6BurgerC1ERKS_
FN:60,_ZN6BurgerC2ERKS_
FNDA:0,_ZN6BurgerC1ERKS_
FNDA:0,_ZN6BurgerC2ERKS_
FNF:2
FNH:0
DA:61,0
LF:1
LH:0
end_of_record
SF:/Users/tristan/Documents/Sources/BurgerQuiz/helpers/DebugHelper.hpp
FN:23,_ZN11DebugHelper12teamToStringEN6Burger4TeamE
FNDA:0,_ZN11DebugHelper12teamToStringEN6Burger4TeamE
FNF:1
FNH:0
DA:24,0
DA:25,0
DA:26,0
DA:27,0
DA:30,0
DA:31,0
LF:6
LH:0
end_of_record
TN:
SF:/Applications/Developpement/Qt/5.11.0/clang_64/lib/QtCore.framework/Headers/qscopedpointer.h
FN:116,_ZNK14QScopedPointerI11QObjectData21QScopedPointerDeleterIS0_EEptEv
FNDA:0,_ZNK14QScopedPointerI11QObjectData21QScopedPointerDeleterIS0_EEptEv
FNF:1
FNH:0
DA:118,0
LF:1
LH:0
end_of_record
SF:/Applications/Developpement/Qt/5.11.0/clang_64/lib/QtQml.framework/Headers/qqmldebug.h
FN:79,__cxx_global_var_init
FNDA:1,__cxx_global_var_init
FNF:1
FNH:1
DA:79,2
LF:1
LH:1
end_of_record
SF:/tmp/build-tests-Desktop_Qt_5_11_0_clang_64bit-Debug/tst_testmessagefactory/moc_Burger.cpp
FN:78,_ZN6Burger18qt_static_metacallEP7QObjectN11QMetaObject4CallEiPPv
FN:106,_ZNK6Burger10metaObjectEv
FN:111,_ZN6Burger11qt_metacastEPKc
FN:119,_ZN6Burger11qt_metacallEN11QMetaObject4CallEiPPv
FN:137,_ZN6Burger11teamChangedEv
FNDA:0,_ZN6Burger18qt_static_metacallEP7QObjectN11QMetaObject4CallEiPPv
FNDA:0,_ZNK6Burger10metaObjectEv
FNDA:0,_ZN6Burger11qt_metacastEPKc
FNDA:0,_ZN6Burger11qt_metacallEN11QMetaObject4CallEiPPv
FNDA:0,_ZN6Burger11teamChangedEv
FNF:5
FNH:0
DA:80,0
DA:81,0
DA:83,0
DA:84,0
DA:86,0
DA:87,0
DA:88,0
DA:91,0
DA:92,0
DA:93,0
DA:96,0
DA:98,0
DA:108,0
DA:113,0
DA:114,0
DA:115,0
DA:116,0
DA:117,0
DA:121,0
DA:122,0
DA:123,0
DA:124,0
DA:125,0
DA:126,0
DA:127,0
DA:128,0
DA:129,0
DA:130,0
DA:131,0
DA:132,0
DA:133,0
DA:134,0
DA:139,0
DA:140,0
LF:34
LH:0
end_of_record
TN:
SF:/Applications/Developpement/Qt/5.11.0/clang_64/lib/QtCore.framework/Headers/qarraydata.h
FN:123,_ZN10QArrayData10sharedNullEv
FN:234,_ZN15QTypedArrayDataItE10deallocateEP10QArrayData
FN:255,_ZN15QTypedArrayDataItE10sharedNullEv
FNDA:0,_ZN10QArrayData10sharedNullEv
FNDA:0,_ZN15QTypedArrayDataItE10deallocateEP10QArrayData
FNDA:0,_ZN15QTypedArrayDataItE10sharedNullEv
FNF:3
FNH:0
DA:123,0
DA:237,0
DA:238,0
DA:258,0
LF:4
LH:0
end_of_record
SF:/Applications/Developpement/Qt/5.11.0/clang_64/lib/QtCore.framework/Headers/qatomic.h
FN:60,_ZN14QAtomicIntegerIiEC2Ei
FN:162,_ZN10QAtomicIntC1Ei
FN:162,_ZN10QAtomicIntC2Ei
FNDA:0,_ZN14QAtomicIntegerIiEC2Ei
FNDA:0,_ZN10QAtomicIntC1Ei
FNDA:0,_ZN10QAtomicIntC2Ei
FNF:3
FNH:0
DA:60,0
DA:162,0
LF:2
LH:0
end_of_record
SF:/Applications/Developpement/Qt/5.11.0/clang_64/lib/QtCore.framework/Headers/qatomic_cxx11.h
FN:225,_ZN10QAtomicOpsIiE4loadIiEET_RKNSt3__16atomicIS2_EE
FN:263,_ZN10QAtomicOpsIiE3refIiEEbRNSt3__16atomicIT_EE
FN:269,_ZN10QAtomicOpsIiE5derefIiEEbRNSt3__16atomicIT_EE
FNDA:0,_ZN10QAtomicOpsIiE4loadIiEET_RKNSt3__16atomicIS2_EE
FNDA:0,_ZN10QAtomicOpsIiE3refIiEEbRNSt3__16atomicIT_EE
FNDA:0,_ZN10QAtomicOpsIiE5derefIiEEbRNSt3__16atomicIT_EE
FNF:3
FNH:0
DA:227,0
DA:265,0
DA:271,0
LF:3
LH:0
end_of_record
SF:/Applications/Developpement/Qt/5.11.0/clang_64/lib/QtCore.framework/Headers/qbasicatomic.h
FN:91,_ZNK19QBasicAtomicIntegerIiE4loadEv
FN:102,_ZN19QBasicAtomicIntegerIiE3refEv
FN:103,_ZN19QBasicAtomicIntegerIiE5derefEv
FN:209,_ZN19QBasicAtomicIntegerIiEC2Ei
FNDA:0,_ZNK19QBasicAtomicIntegerIiE4loadEv
FNDA:0,_ZN19QBasicAtomicIntegerIiE3refEv
FNDA:0,_ZN19QBasicAtomicIntegerIiE5derefEv
FNDA:0,_ZN19QBasicAtomicIntegerIiEC2Ei
FNF:4
FNH:0
DA:91,0
DA:102,0
DA:103,0
DA:209,0
LF:4
LH:0
end_of_record
SF:/Applications/Developpement/Qt/5.11.0/clang_64/lib/QtCore.framework/Headers/qrefcount.h
FN:54,_ZN9QtPrivate8RefCount3refEv
FN:65,_ZN9QtPrivate8RefCount5derefEv
FNDA:0,_ZN9QtPrivate8RefCount3refEv
FNDA:0,_ZN9QtPrivate8RefCount5derefEv
FNF:2
FNH:0
DA:55,0
DA:57,0
DA:58,0
DA:60,0
DA:61,0
DA:62,0
DA:63,0
DA:66,0
DA:68,0
DA:69,0
DA:71,0
DA:72,0
DA:73,0
DA:74,0
LF:14
LH:0
end_of_record
SF:/Applications/Developpement/Qt/5.11.0/clang_64/lib/QtCore.framework/Headers/qshareddata.h
FN:60,_ZN11QSharedDataC2Ev
FN:146,_ZN28QExplicitlySharedDataPointerI10BurgerDataEptEv
FN:147,_ZNK28QExplicitlySharedDataPointerI10BurgerDataEptEv
FN:169,_ZN28QExplicitlySharedDataPointerI10BurgerDataED2Ev
FN:169,_ZN28QExplicitlySharedDataPointerI10BurgerDataED1Ev
FN:270,_ZN28QExplicitlySharedDataPointerI10BurgerDataEC1EPS0_
FN:270,_ZN28QExplicitlySharedDataPointerI10BurgerDataEC2EPS0_
FNDA:0,_ZN11QSharedDataC2Ev
FNDA:0,_ZN28QExplicitlySharedDataPointerI10BurgerDataEptEv
FNDA:0,_ZNK28QExplicitlySharedDataPointerI10BurgerDataEptEv
FNDA:0,_ZN28QExplicitlySharedDataPointerI10BurgerDataED1Ev
FNDA:0,_ZN28QExplicitlySharedDataPointerI10BurgerDataED2Ev
FNDA:0,_ZN28QExplicitlySharedDataPointerI10BurgerDataEC1EPS0_
FNDA:0,_ZN28QExplicitlySharedDataPointerI10BurgerDataEC2EPS0_
FNF:7
FNH:0
DA:60,0
DA:146,0
DA:147,0
DA:169,0
DA:271,0
DA:272,0
LF:6
LH:0
end_of_record
SF:/Applications/Developpement/Qt/5.11.0/clang_64/lib/QtCore.framework/Headers/qstring.h
FN:952,_ZN7QStringC2ERKS_
FN:952,_ZN7QStringC1ERKS_
FN:1129,_ZN7QStringC2Ev
FN:1129,_ZN7QStringC1Ev
FN:1130,_ZN7QStringD1Ev
FN:1130,_ZN7QStringD2Ev
FNDA:0,_ZN7QStringC1ERKS_
FNDA:0,_ZN7QStringC2ERKS_
FNDA:0,_ZN7QStringC1Ev
FNDA:0,_ZN7QStringC2Ev
FNDA:0,_ZN7QStringD1Ev
FNDA:0,_ZN7QStringD2Ev
FNF:6
FNH:0
DA:952,0
DA:953,0
DA:1129,0
DA:1130,0
LF:4
LH:0
end_of_record
SF:/Applications/Developpement/Qt/5.11.0/clang_64/lib/QtQml.framework/Headers/qqmldebug.h
FN:79,__cxx_global_var_init
FNDA:1,__cxx_global_var_init
FNF:1
FNH:1
DA:79,2
LF:1
LH:1
end_of_record
SF:/Library/Developer/CommandLineTools/usr/include/c++/v1/atomic
FN:927,_ZNKSt3__113__atomic_baseIiLb0EE4loadENS_12memory_orderE
FN:985,_ZNSt3__113__atomic_baseIiLb0EEC2Ei
FN:1013,_ZNSt3__113__atomic_baseIiLb1EEC2Ei
FN:1019,_ZNSt3__113__atomic_baseIiLb1EE9fetch_addEiNS_12memory_orderE
FN:1025,_ZNSt3__113__atomic_baseIiLb1EE9fetch_subEiNS_12memory_orderE
FN:1057,_ZNSt3__113__atomic_baseIiLb1EEppEv
FN:1061,_ZNSt3__113__atomic_baseIiLb1EEmmEv
FN:1094,_ZNSt3__16atomicIiEC2Ei
FN:1094,_ZNSt3__16atomicIiEC1Ei
FNDA:0,_ZNKSt3__113__atomic_baseIiLb0EE4loadENS_12memory_orderE
FNDA:0,_ZNSt3__113__atomic_baseIiLb0EEC2Ei
FNDA:0,_ZNSt3__113__atomic_baseIiLb1EEC2Ei
FNDA:0,_ZNSt3__113__atomic_baseIiLb1EE9fetch_addEiNS_12memory_orderE
FNDA:0,_ZNSt3__113__atomic_baseIiLb1EE9fetch_subEiNS_12memory_orderE
FNDA:0,_ZNSt3__113__atomic_baseIiLb1EEppEv
FNDA:0,_ZNSt3__113__atomic_baseIiLb1EEmmEv
FNDA:0,_ZNSt3__16atomicIiEC1Ei
FNDA:0,_ZNSt3__16atomicIiEC2Ei
FNF:9
FNH:0
DA:929,0
DA:985,0
DA:1013,0
DA:1020,0
DA:1026,0
DA:1057,0
DA:1061,0
DA:1094,0
LF:8
LH:0
end_of_record
SF:/Users/tristan/Documents/Sources/BurgerQuiz/domain/Burger.cpp
FN:4,_ZN6BurgerC1Ev
FN:4,_ZN6BurgerC2Ev
FN:8,_ZN6BurgerD1Ev
FN:8,_ZN6BurgerD2Ev
FN:8,_ZN6BurgerD0Ev
FN:10,_ZN6BurgerC2ENS_4TeamE7QString
FN:10,_ZN6BurgerC1ENS_4TeamE7QString
FN:17,_ZN6Burger7setTeamENS_4TeamE
FN:22,_ZNK6Burger4teamEv
FN:27,_ZNK6Burger8portNameEv
FN:32,_ZN6Burger11setPortNameE7QString
FN:36,_ZNK6Burger8ledStateEv
FN:41,_ZN6Burger11setLedStateENS_8LedStateE
FN:46,_ZNK6Burger11burgerStateEv
FN:51,_ZN6Burger14setBurgerStateENS_11BurgerStateE
FN:56,_ZNK6Burger5validEv
FN:61,_ZNK6Burger7isReadyEv
FN:66,_ZN6Burger6enableEv
FN:71,_ZN6Burger7disableEv
FN:76,_ZNK6Burger9isEnabledEv
FNDA:0,_ZN6BurgerC2Ev
FNDA:0,_ZN6BurgerC1Ev
FNDA:0,_ZN6BurgerD2Ev
FNDA:0,_ZN6BurgerD1Ev
FNDA:0,_ZN6BurgerD0Ev
FNDA:0,_ZN6BurgerC2ENS_4TeamE7QString
FNDA:0,_ZN6BurgerC1ENS_4TeamE7QString
FNDA:0,_ZN6Burger7setTeamENS_4TeamE
FNDA:0,_ZNK6Burger4teamEv
FNDA:0,_ZNK6Burger8portNameEv
FNDA:0,_ZN6Burger11setPortNameE7QString
FNDA:0,_ZNK6Burger8ledStateEv
FNDA:0,_ZN6Burger11setLedStateENS_8LedStateE
FNDA:0,_ZNK6Burger11burgerStateEv
FNDA:0,_ZN6Burger14setBurgerStateENS_11BurgerStateE
FNDA:0,_ZNK6Burger5validEv
FNDA:0,_ZNK6Burger7isReadyEv
FNDA:0,_ZN6Burger6enableEv
FNDA:0,_ZN6Burger7disableEv
FNDA:0,_ZNK6Burger9isEnabledEv
FNF:20
FNH:0
DA:4,0
DA:5,0
DA:6,0
DA:8,0
DA:10,0
DA:11,0
DA:12,0
DA:13,0
DA:14,0
DA:15,0
DA:19,0
DA:20,0
DA:24,0
DA:29,0
DA:33,0
DA:34,0
DA:38,0
DA:43,0
DA:44,0
DA:48,0
DA:53,0
DA:54,0
DA:58,0
DA:63,0
DA:68,0
DA:69,0
DA:73,0
DA:74,0
DA:78,0
LF:29
LH:0
end_of_record
SF:/Users/tristan/Documents/Sources/BurgerQuiz/domain/Burger.h
FN:15,_ZN10BurgerDataC1Ev
FN:15,_ZN10BurgerDataC2Ev
FN:16,_ZN10BurgerDataD2Ev
FN:16,_ZN10BurgerDataD1Ev
FNDA:0,_ZN10BurgerDataC1Ev
FNDA:0,_ZN10BurgerDataC2Ev
FNDA:0,_ZN10BurgerDataD1Ev
FNDA:0,_ZN10BurgerDataD2Ev
FNF:4
FNH:0
DA:15,0
DA:16,0
DA:26,0
DA:34,0
LF:4
LH:0
end_of_record
TN:
SF:/Applications/Developpement/Qt/5.11.0/clang_64/lib/QtCore.framework/Headers/qarraydata.h
FN:57,_ZN10QArrayData4dataEv
FN:206,_ZN15QTypedArrayDataIcE4dataEv
FN:234,_ZN15QTypedArrayDataIcE10deallocateEP10QArrayData
FNDA:0,_ZN10QArrayData4dataEv
FNDA:0,_ZN15QTypedArrayDataIcE4dataEv
FNDA:0,_ZN15QTypedArrayDataIcE10deallocateEP10QArrayData
FNF:3
FNH:0
DA:59,0
DA:61,0
DA:206,0
DA:237,0
DA:238,0
LF:5
LH:0
end_of_record
SF:/Applications/Developpement/Qt/5.11.0/clang_64/lib/QtCore.framework/Headers/qatomic_cxx11.h
FN:225,_ZN10QAtomicOpsIiE4loadIiEET_RKNSt3__16atomicIS2_EE
FN:237,_ZN10QAtomicOpsIiE11loadAcquireIiEET_RKNSt3__16atomicIS2_EE
FN:255,_ZN10QAtomicOpsIiE12storeReleaseIiEEvRNSt3__16atomicIT_EES4_
FN:269,_ZN10QAtomicOpsIiE5derefIiEEbRNSt3__16atomicIT_EE
FNDA:0,_ZN10QAtomicOpsIiE4loadIiEET_RKNSt3__16atomicIS2_EE
FNDA:0,_ZN10QAtomicOpsIiE11loadAcquireIiEET_RKNSt3__16atomicIS2_EE
FNDA:0,_ZN10QAtomicOpsIiE12storeReleaseIiEEvRNSt3__16atomicIT_EES4_
FNDA:0,_ZN10QAtomicOpsIiE5derefIiEEbRNSt3__16atomicIT_EE
FNF:4
FNH:0
DA:227,0
DA:239,0
DA:257,0
DA:258,0
DA:271,0
LF:5
LH:0
end_of_record
SF:/Applications/Developpement/Qt/5.11.0/clang_64/lib/QtCore.framework/Headers/qbasicatomic.h
FN:91,_ZNK19QBasicAtomicIntegerIiE4loadEv
FN:94,_ZNK19QBasicAtomicIntegerIiE11loadAcquireEv
FN:95,_ZN19QBasicAtomicIntegerIiE12storeReleaseEi
FN:103,_ZN19QBasicAtomicIntegerIiE5derefEv
FNDA:0,_ZNK19QBasicAtomicIntegerIiE4loadEv
FNDA:0,_ZNK19QBasicAtomicIntegerIiE11loadAcquireEv
FNDA:0,_ZN19QBasicAtomicIntegerIiE12storeReleaseEi
FNDA:0,_ZN19QBasicAtomicIntegerIiE5derefEv
FNF:4
FNH:0
DA:91,0
DA:94,0
DA:95,0
DA:103,0
LF:4
LH:0
end_of_record
SF:/Applications/Developpement/Qt/5.11.0/clang_64/lib/QtCore.framework/Headers/qbytearray.h
FN:469,_ZN10QByteArrayD1Ev
FN:469,_ZN10QByteArrayD2Ev
FN:470,_ZNK10QByteArray4sizeEv
FN:492,_ZNK10QByteArray9constDataEv
FN:603,_ZeqRK10QByteArrayS1_
FNDA:0,_ZN10QByteArrayD1Ev
FNDA:0,_ZN10QByteArrayD2Ev
FNDA:0,_ZNK10QByteArray4sizeEv
FNDA:0,_ZNK10QByteArray9constDataEv
FNDA:0,_ZeqRK10QByteArrayS1_
FNF:5
FNH:0
DA:469,0
DA:471,0
DA:493,0
DA:604,0
LF:4
LH:0
end_of_record
SF:/Applications/Developpement/Qt/5.11.0/clang_64/lib/QtCore.framework/Headers/qflags.h
FN:57,_ZN5QFlagC1Ei
FN:57,_ZN5QFlagC2Ei
FN:71,_ZNK5QFlagcvjEv
FN:122,_ZN6QFlagsIN9QMetaType8TypeFlagEEC1E5QFlag
FN:122,_ZN6QFlagsIN9QMetaType8TypeFlagEEC2E5QFlag
FN:133,_ZN6QFlagsIN9QMetaType8TypeFlagEEoRES1_
FNDA:0,_ZN5QFlagC1Ei
FNDA:0,_ZN5QFlagC2Ei
FNDA:0,_ZNK5QFlagcvjEv
FNDA:0,_ZN6QFlagsIN9QMetaType8TypeFlagEEC1E5QFlag
FNDA:0,_ZN6QFlagsIN9QMetaType8TypeFlagEEC2E5QFlag
FNDA:0,_ZN6QFlagsIN9QMetaType8TypeFlagEEoRES1_
FNF:6
FNH:0
DA:57,0
DA:71,0
DA:122,0
DA:133,0
LF:4
LH:0
end_of_record
SF:/Applications/Developpement/Qt/5.11.0/clang_64/lib/QtCore.framework/Headers/qmetatype.h
FN:767,_ZN17QtMetaTypePrivate23QMetaTypeFunctionHelperIN6Burger4TeamELb1EE8DestructEPv
FN:773,_ZN17QtMetaTypePrivate23QMetaTypeFunctionHelperIN6Burger4TeamELb1EE9ConstructEPvPKv
FN:1438,_ZN9QtPrivate17MetaObjectForTypeIN6Burger4TeamEvE5valueEv
FN:1515,_ZN9QtPrivate34SequentialContainerConverterHelperIN6Burger4TeamELb0EE17registerConverterEi
FN:1538,_ZN9QtPrivate35AssociativeContainerConverterHelperIN6Burger4TeamELb0EE17registerConverterEi
FN:1591,_ZN9QtPrivate6IsPairIN6Burger4TeamEE17registerConverterEi
FN:1607,_ZN9QtPrivate26MetaTypeSmartPointerHelperIN6Burger4TeamEvE17registerConverterEi
FN:1634,_ZN12QMetaTypeId2IN6Burger4TeamEE14qt_metatype_idEv
FN:1646,_ZN9QtPrivate17QMetaTypeIdHelperIN6Burger4TeamELb1EE14qt_metatype_idEv
FN:1700,_Z27qRegisterNormalizedMetaTypeIN6Burger4TeamEEiRK10QByteArrayPT_N9QtPrivate21MetaTypeDefinedHelperIS5_Xaasr12QMetaTypeId2IS5_EE7Definedntsr12QMetaTypeId2IS5_EE9IsBuiltInEE11DefinedTypeE
FN:1737,_Z17qRegisterMetaTypeIN6Burger4TeamEEiPKcPT_N9QtPrivate21MetaTypeDefinedHelperIS4_Xaasr12QMetaTypeId2IS4_EE7Definedntsr12QMetaTypeId2IS4_EE9IsBuiltInEE11DefinedTypeE
FN:1767,_Z11qMetaTypeIdIN6Burger4TeamEEiv
FN:1774,_Z17qRegisterMetaTypeIN6Burger4TeamEEiv
FNDA:0,_ZN17QtMetaTypePrivate23QMetaTypeFunctionHelperIN6Burger4TeamELb1EE8DestructEPv
FNDA:0,_ZN17QtMetaTypePrivate23QMetaTypeFunctionHelperIN6Burger4TeamELb1EE9ConstructEPvPKv
FNDA:0,_ZN9QtPrivate17MetaObjectForTypeIN6Burger4TeamEvE5valueEv
FNDA:0,_ZN9QtPrivate34SequentialContainerConverterHelperIN6Burger4TeamELb0EE17registerConverterEi
FNDA:0,_ZN9QtPrivate35AssociativeContainerConverterHelperIN6Burger4TeamELb0EE17registerConverterEi
FNDA:0,_ZN9QtPrivate6IsPairIN6Burger4TeamEE17registerConverterEi
FNDA:0,_ZN9QtPrivate26MetaTypeSmartPointerHelperIN6Burger4TeamEvE17registerConverterEi
FNDA:0,_ZN12QMetaTypeId2IN6Burger4TeamEE14qt_metatype_idEv
FNDA:0,_ZN9QtPrivate17QMetaTypeIdHelperIN6Burger4TeamELb1EE14qt_metatype_idEv
FNDA:0,_Z27qRegisterNormalizedMetaTypeIN6Burger4TeamEEiRK10QByteArrayPT_N9QtPrivate21MetaTypeDefinedHelperIS5_Xaasr12QMetaTypeId2IS5_EE7Definedntsr12QMetaTypeId2IS5_EE9IsBuiltInEE11DefinedTypeE
FNDA:0,_Z17qRegisterMetaTypeIN6Burger4TeamEEiPKcPT_N9QtPrivate21MetaTypeDefinedHelperIS4_Xaasr12QMetaTypeId2IS4_EE7Definedntsr12QMetaTypeId2IS4_EE9IsBuiltInEE11DefinedTypeE
FNDA:0,_Z11qMetaTypeIdIN6Burger4TeamEEiv
FNDA:0,_Z17qRegisterMetaTypeIN6Burger4TeamEEiv
FNF:13
FNH:0
DA:770,0
DA:771,0
DA:775,0
DA:776,0
DA:777,0
DA:778,0
DA:1438,0
DA:1517,0
DA:1540,0
DA:1593,0
DA:1607,0
DA:1634,0
DA:1647,0
DA:1708,0
DA:1710,0
DA:1711,0
DA:1712,0
DA:1714,0
DA:1716,0
DA:1717,0
DA:1719,0
DA:1723,0
DA:1724,0
DA:1726,0
DA:1727,0
DA:1728,0
DA:1729,0
DA:1730,0
DA:1731,0
DA:1733,0
DA:1734,0
DA:1747,0
DA:1749,0
DA:1750,0
DA:1770,0
DA:1776,0
LF:36
LH:0
end_of_record
SF:/Applications/Developpement/Qt/5.11.0/clang_64/lib/QtCore.framework/Headers/qrefcount.h
FN:65,_ZN9QtPrivate8RefCount5derefEv
FNDA:0,_ZN9QtPrivate8RefCount5derefEv
FNF:1
FNH:0
DA:66,0
DA:68,0
DA:69,0
DA:71,0
DA:72,0
DA:73,0
DA:74,0
LF:7
LH:0
end_of_record
SF:/Applications/Developpement/Qt/5.11.0/clang_64/lib/QtCore.framework/Headers/qscopedpointer.h
FN:116,_ZNK14QScopedPointerI11QObjectData21QScopedPointerDeleterIS0_EEptEv
FNDA:0,_ZNK14QScopedPointerI11QObjectData21QScopedPointerDeleterIS0_EEptEv
FNF:1
FNH:0
DA:118,0
LF:1
LH:0
end_of_record
SF:/Applications/Developpement/Qt/5.11.0/clang_64/lib/QtQml.framework/Headers/qqmldebug.h
FN:79,__cxx_global_var_init
FNDA:1,__cxx_global_var_init
FNF:1
FNH:1
DA:79,2
LF:1
LH:1
end_of_record
SF:/Library/Developer/CommandLineTools/usr/include/c++/v1/atomic
FN:919,_ZNSt3__113__atomic_baseIiLb0EE5storeEiNS_12memory_orderE
FN:927,_ZNKSt3__113__atomic_baseIiLb0EE4loadENS_12memory_orderE
FN:1025,_ZNSt3__113__atomic_baseIiLb1EE9fetch_subEiNS_12memory_orderE
FN:1061,_ZNSt3__113__atomic_baseIiLb1EEmmEv
FNDA:0,_ZNSt3__113__atomic_baseIiLb0EE5storeEiNS_12memory_orderE
FNDA:0,_ZNKSt3__113__atomic_baseIiLb0EE4loadENS_12memory_orderE
FNDA:0,_ZNSt3__113__atomic_baseIiLb1EE9fetch_subEiNS_12memory_orderE
FNDA:0,_ZNSt3__113__atomic_baseIiLb1EEmmEv
FNF:4
FNH:0
DA:921,0
DA:929,0
DA:1026,0
DA:1061,0
LF:4
LH:0
end_of_record
SF:/Users/tristan/Documents/Sources/BurgerQuiz/domain/Burger.h
FN:151,_ZN11QMetaTypeIdIN6Burger4TeamEE14qt_metatype_idEv
FNDA:0,_ZN11QMetaTypeIdIN6Burger4TeamEE14qt_metatype_idEv
FNF:1
FNH:0
DA:151,0
LF:1
LH:0
end_of_record
SF:/Users/tristan/Documents/Sources/BurgerQuiz/controllers/GameController.h
FN:28,_ZN14GameControllerD2Ev
FN:28,_ZN14GameControllerD0Ev
FN:28,_ZN14GameControllerD1Ev
FNDA:0,_ZN14GameControllerD1Ev
FNDA:0,_ZN14GameControllerD0Ev
FNDA:0,_ZN14GameControllerD2Ev
FNF:3
FNH:0
DA:28,0
LF:1
LH:0
end_of_record
SF:/tmp/build-tests-Desktop_Qt_5_11_0_clang_64bit-Debug/tst_testmessagefactory/moc_GameController.cpp
FN:124,_ZN14GameController18qt_static_metacallEP7QObjectN11QMetaObject4CallEiPPv
FN:223,_ZNK14GameController10metaObjectEv
FN:228,_ZN14GameController11qt_metacastEPKc
FN:236,_ZN14GameController11qt_metacallEN11QMetaObject4CallEiPPv
FN:271,_ZN14GameController9gameReadyEv
FN:277,_ZN14GameController14burgerSelectedEN6Burger4TeamE
FN:284,_ZN14GameController17burgerInitializedEN6Burger4TeamE
FN:291,_ZN14GameController16gameStateChangedEv
FNDA:0,_ZN14GameController18qt_static_metacallEP7QObjectN11QMetaObject4CallEiPPv
FNDA:0,_ZNK14GameController10metaObjectEv
FNDA:0,_ZN14GameController11qt_metacastEPKc
FNDA:0,_ZN14GameController11qt_metacallEN11QMetaObject4CallEiPPv
FNDA:0,_ZN14GameController9gameReadyEv
FNDA:0,_ZN14GameController14burgerSelectedEN6Burger4TeamE
FNDA:0,_ZN14GameController17burgerInitializedEN6Burger4TeamE
FNDA:0,_ZN14GameController16gameStateChangedEv
FNF:8
FNH:0
DA:126,0
DA:127,0
DA:129,0
DA:130,0
DA:131,0
DA:132,0
DA:133,0
DA:134,0
DA:135,0
DA:136,0
DA:137,0
DA:138,0
DA:140,0
DA:141,0
DA:142,0
DA:143,0
DA:145,0
DA:146,0
DA:148,0
DA:150,0
DA:152,0
DA:153,0
DA:155,0
DA:157,0
DA:159,0
DA:160,0
DA:163,0
DA:164,0
DA:165,0
DA:170,0
DA:171,0
DA:172,0
DA:177,0
DA:178,0
DA:179,0
DA:184,0
DA:185,0
DA:186,0
DA:189,0
DA:191,0
DA:192,0
DA:194,0
DA:195,0
DA:196,0
DA:197,0
DA:199,0
DA:200,0
DA:202,0
DA:203,0
DA:205,0
DA:206,0
DA:207,0
DA:208,0
DA:209,0
DA:210,0
DA:212,0
DA:213,0
DA:215,0
DA:225,0
DA:230,0
DA:231,0
DA:232,0
DA:233,0
DA:234,0
DA:238,0
DA:239,0
DA:240,0
DA:241,0
DA:242,0
DA:243,0
DA:244,0
DA:245,0
DA:246,0
DA:247,0
DA:248,0
DA:249,0
DA:251,0
DA:252,0
DA:253,0
DA:254,0
DA:255,0
DA:256,0
DA:257,0
DA:258,0
DA:259,0
DA:260,0
DA:261,0
DA:262,0
DA:263,0
DA:264,0
DA:265,0
DA:267,0
DA:268,0
DA:273,0
DA:274,0
DA:279,0
DA:280,0
DA:281,0
DA:286,0
DA:287,0
DA:288,0
DA:293,0
DA:294,0
LF:103
LH:0
end_of_record
TN:
SF:/Applications/Developpement/Qt/5.11.0/clang_64/lib/QtCore.framework/Headers/qarraydata.h
FN:234,_ZN15QTypedArrayDataItE10deallocateEP10QArrayData
FN:234,_ZN15QTypedArrayDataIcE10deallocateEP10QArrayData
FNDA:0,_ZN15QTypedArrayDataItE10deallocateEP10QArrayData
FNDA:0,_ZN15QTypedArrayDataIcE10deallocateEP10QArrayData
FNF:2
FNH:0
DA:237,0
DA:238,0
LF:2
LH:0
end_of_record
SF:/Applications/Developpement/Qt/5.11.0/clang_64/lib/QtCore.framework/Headers/qatomic_cxx11.h
FN:225,_ZN10QAtomicOpsIiE4loadIiEET_RKNSt3__16atomicIS2_EE
FN:263,_ZN10QAtomicOpsIiE3refIiEEbRNSt3__16atomicIT_EE
FN:269,_ZN10QAtomicOpsIiE5derefIiEEbRNSt3__16atomicIT_EE
FNDA:0,_ZN10QAtomicOpsIiE4loadIiEET_RKNSt3__16atomicIS2_EE
FNDA:0,_ZN10QAtomicOpsIiE3refIiEEbRNSt3__16atomicIT_EE
FNDA:0,_ZN10QAtomicOpsIiE5derefIiEEbRNSt3__16atomicIT_EE
FNF:3
FNH:0
DA:227,0
DA:265,0
DA:271,0
LF:3
LH:0
end_of_record
SF:/Applications/Developpement/Qt/5.11.0/clang_64/lib/QtCore.framework/Headers/qbasicatomic.h
FN:91,_ZNK19QBasicAtomicIntegerIiE4loadEv
FN:102,_ZN19QBasicAtomicIntegerIiE3refEv
FN:103,_ZN19QBasicAtomicIntegerIiE5derefEv
FNDA:0,_ZNK19QBasicAtomicIntegerIiE4loadEv
FNDA:0,_ZN19QBasicAtomicIntegerIiE3refEv
FNDA:0,_ZN19QBasicAtomicIntegerIiE5derefEv
FNF:3
FNH:0
DA:91,0
DA:102,0
DA:103,0
LF:3
LH:0
end_of_record
SF:/Applications/Developpement/Qt/5.11.0/clang_64/lib/QtCore.framework/Headers/qbytearray.h
FN:469,_ZN10QByteArrayD2Ev
FN:469,_ZN10QByteArrayD1Ev
FN:498,_ZN10QByteArrayC1ERKS_
FN:498,_ZN10QByteArrayC2ERKS_
FNDA:0,_ZN10QByteArrayD1Ev
FNDA:0,_ZN10QByteArrayD2Ev
FNDA:0,_ZN10QByteArrayC1ERKS_
FNDA:0,_ZN10QByteArrayC2ERKS_
FNF:4
FNH:0
DA:469,0
DA:498,0
DA:499,0
LF:3
LH:0
end_of_record
SF:/Applications/Developpement/Qt/5.11.0/clang_64/lib/QtCore.framework/Headers/qrefcount.h
FN:54,_ZN9QtPrivate8RefCount3refEv
FN:65,_ZN9QtPrivate8RefCount5derefEv
FNDA:0,_ZN9QtPrivate8RefCount3refEv
FNDA:0,_ZN9QtPrivate8RefCount5derefEv
FNF:2
FNH:0
DA:55,0
DA:57,0
DA:58,0
DA:60,0
DA:61,0
DA:62,0
DA:63,0
DA:66,0
DA:68,0
DA:69,0
DA:71,0
DA:72,0
DA:73,0
DA:74,0
LF:14
LH:0
end_of_record
SF:/Applications/Developpement/Qt/5.11.0/clang_64/lib/QtCore.framework/Headers/qscopedpointer.h
FN:116,_ZNK14QScopedPointerI11QObjectData21QScopedPointerDeleterIS0_EEptEv
FNDA:0,_ZNK14QScopedPointerI11QObjectData21QScopedPointerDeleterIS0_EEptEv
FNF:1
FNH:0
DA:118,0
LF:1
LH:0
end_of_record
SF:/Applications/Developpement/Qt/5.11.0/clang_64/lib/QtCore.framework/Headers/qstring.h
FN:952,_ZN7QStringC1ERKS_
FN:952,_ZN7QStringC2ERKS_
FN:1130,_ZN7QStringD2Ev
FN:1130,_ZN7QStringD1Ev
FNDA:0,_ZN7QStringC1ERKS_
FNDA:0,_ZN7QStringC2ERKS_
FNDA:0,_ZN7QStringD1Ev
FNDA:0,_ZN7QStringD2Ev
FNF:4
FNH:0
DA:952,0
DA:953,0
DA:1130,0
LF:3
LH:0
end_of_record
SF:/Applications/Developpement/Qt/5.11.0/clang_64/lib/QtQml.framework/Headers/qqmldebug.h
FN:79,__cxx_global_var_init
FNDA:1,__cxx_global_var_init
FNF:1
FNH:1
DA:79,2
LF:1
LH:1
end_of_record
SF:/Library/Developer/CommandLineTools/usr/include/c++/v1/atomic
FN:927,_ZNKSt3__113__atomic_baseIiLb0EE4loadENS_12memory_orderE
FN:1019,_ZNSt3__113__atomic_baseIiLb1EE9fetch_addEiNS_12memory_orderE
FN:1025,_ZNSt3__113__atomic_baseIiLb1EE9fetch_subEiNS_12memory_orderE
FN:1057,_ZNSt3__113__atomic_baseIiLb1EEppEv
FN:1061,_ZNSt3__113__atomic_baseIiLb1EEmmEv
FNDA:0,_ZNKSt3__113__atomic_baseIiLb0EE4loadENS_12memory_orderE
FNDA:0,_ZNSt3__113__atomic_baseIiLb1EE9fetch_addEiNS_12memory_orderE
FNDA:0,_ZNSt3__113__atomic_baseIiLb1EE9fetch_subEiNS_12memory_orderE
FNDA:0,_ZNSt3__113__atomic_baseIiLb1EEppEv
FNDA:0,_ZNSt3__113__atomic_baseIiLb1EEmmEv
FNF:5
FNH:0
DA:929,0
DA:1020,0
DA:1026,0
DA:1057,0
DA:1061,0
LF:5
LH:0
end_of_record
SF:/tmp/build-tests-Desktop_Qt_5_11_0_clang_64bit-Debug/tst_testmessagefactory/moc_BurgerController.cpp
FN:154,_ZN16BurgerController18qt_static_metacallEP7QObjectN11QMetaObject4CallEiPPv
FN:255,_ZNK16BurgerController10metaObjectEv
FN:260,_ZN16BurgerController11qt_metacastEPKc
FN:268,_ZN16BurgerController11qt_metacallEN11QMetaObject4CallEiPPv
FN:286,_ZN16BurgerController5errorE7QString
FN:293,_ZN16BurgerController11initializedEv
FN:299,_ZN16BurgerController10portOpenedEv
FN:305,_ZN16BurgerController8pingSentEv
FN:311,_ZN16BurgerController12pongReceivedEv
FN:317,_ZN16BurgerController5readyEv
FN:323,_ZN16BurgerController13buttonPressedEv
FN:329,_ZN16BurgerController11selectionneEv
FNDA:0,_ZN16BurgerController18qt_static_metacallEP7QObjectN11QMetaObject4CallEiPPv
FNDA:0,_ZNK16BurgerController10metaObjectEv
FNDA:0,_ZN16BurgerController11qt_metacastEPKc
FNDA:0,_ZN16BurgerController11qt_metacallEN11QMetaObject4CallEiPPv
FNDA:0,_ZN16BurgerController5errorE7QString
FNDA:0,_ZN16BurgerController11initializedEv
FNDA:0,_ZN16BurgerController10portOpenedEv
FNDA:0,_ZN16BurgerController8pingSentEv
FNDA:0,_ZN16BurgerController12pongReceivedEv
FNDA:0,_ZN16BurgerController5readyEv
FNDA:0,_ZN16BurgerController13buttonPressedEv
FNDA:0,_ZN16BurgerController11selectionneEv
FNF:12
FNH:0
DA:156,0
DA:157,0
DA:159,0
DA:160,0
DA:161,0
DA:162,0
DA:163,0
DA:164,0
DA:165,0
DA:166,0
DA:167,0
DA:168,0
DA:169,0
DA:170,0
DA:171,0
DA:172,0
DA:173,0
DA:174,0
DA:175,0
DA:176,0
DA:177,0
DA:178,0
DA:179,0
DA:180,0
DA:181,0
DA:182,0
DA:183,0
DA:184,0
DA:185,0
DA:187,0
DA:188,0
DA:189,0
DA:192,0
DA:193,0
DA:194,0
DA:199,0
DA:200,0
DA:201,0
DA:206,0
DA:207,0
DA:208,0
DA:213,0
DA:214,0
DA:215,0
DA:220,0
DA:221,0
DA:222,0
DA:227,0
DA:228,0
DA:229,0
DA:234,0
DA:235,0
DA:236,0
DA:241,0
DA:242,0
DA:243,0
DA:246,0
DA:247,0
DA:257,0
DA:262,0
DA:263,0
DA:264,0
DA:265,0
DA:266,0
DA:270,0
DA:271,0
DA:272,0
DA:273,0
DA:274,0
DA:275,0
DA:276,0
DA:277,0
DA:278,0
DA:279,0
DA:280,0
DA:281,0
DA:282,0
DA:283,0
DA:288,0
DA:289,0
DA:290,0
DA:295,0
DA:296,0
DA:301,0
DA:302,0
DA:307,0
DA:308,0
DA:313,0
DA:314,0
DA:319,0
DA:320,0
DA:325,0
DA:326,0
DA:331,0
DA:332,0
LF:95
LH:0
end_of_record
TN:
SF:/Applications/Developpement/Qt/5.11.0/clang_64/lib/QtCore.framework/Headers/qarraydata.h
FN:234,_ZN15QTypedArrayDataItE10deallocateEP10QArrayData
FN:234,_ZN15QTypedArrayDataIcE10deallocateEP10QArrayData
FNDA:0,_ZN15QTypedArrayDataIcE10deallocateEP10QArrayData
FNDA:0,_ZN15QTypedArrayDataItE10deallocateEP10QArrayData
FNF:2
FNH:0
DA:237,0
DA:238,0
LF:2
LH:0
end_of_record
SF:/Applications/Developpement/Qt/5.11.0/clang_64/lib/QtCore.framework/Headers/qatomic_cxx11.h
FN:225,_ZN10QAtomicOpsIiE4loadIiEET_RKNSt3__16atomicIS2_EE
FN:263,_ZN10QAtomicOpsIiE3refIiEEbRNSt3__16atomicIT_EE
FN:269,_ZN10QAtomicOpsIiE5derefIiEEbRNSt3__16atomicIT_EE
FNDA:0,_ZN10QAtomicOpsIiE4loadIiEET_RKNSt3__16atomicIS2_EE
FNDA:0,_ZN10QAtomicOpsIiE3refIiEEbRNSt3__16atomicIT_EE
FNDA:0,_ZN10QAtomicOpsIiE5derefIiEEbRNSt3__16atomicIT_EE
FNF:3
FNH:0
DA:227,0
DA:265,0
DA:271,0
LF:3
LH:0
end_of_record
SF:/Applications/Developpement/Qt/5.11.0/clang_64/lib/QtCore.framework/Headers/qbasicatomic.h
FN:91,_ZNK19QBasicAtomicIntegerIiE4loadEv
FN:102,_ZN19QBasicAtomicIntegerIiE3refEv
FN:103,_ZN19QBasicAtomicIntegerIiE5derefEv
FNDA:0,_ZNK19QBasicAtomicIntegerIiE4loadEv
FNDA:0,_ZN19QBasicAtomicIntegerIiE3refEv
FNDA:0,_ZN19QBasicAtomicIntegerIiE5derefEv
FNF:3
FNH:0
DA:91,0
DA:102,0
DA:103,0
LF:3
LH:0
end_of_record
SF:/Applications/Developpement/Qt/5.11.0/clang_64/lib/QtCore.framework/Headers/qbytearray.h
FN:469,_ZN10QByteArrayD1Ev
FN:469,_ZN10QByteArrayD2Ev
FN:498,_ZN10QByteArrayC2ERKS_
FN:498,_ZN10QByteArrayC1ERKS_
FNDA:0,_ZN10QByteArrayD1Ev
FNDA:0,_ZN10QByteArrayD2Ev
FNDA:0,_ZN10QByteArrayC1ERKS_
FNDA:0,_ZN10QByteArrayC2ERKS_
FNF:4
FNH:0
DA:469,0
DA:498,0
DA:499,0
LF:3
LH:0
end_of_record
SF:/Applications/Developpement/Qt/5.11.0/clang_64/lib/QtCore.framework/Headers/qrefcount.h
FN:54,_ZN9QtPrivate8RefCount3refEv
FN:65,_ZN9QtPrivate8RefCount5derefEv
FNDA:0,_ZN9QtPrivate8RefCount3refEv
FNDA:0,_ZN9QtPrivate8RefCount5derefEv
FNF:2
FNH:0
DA:55,0
DA:57,0
DA:58,0
DA:60,0
DA:61,0
DA:62,0
DA:63,0
DA:66,0
DA:68,0
DA:69,0
DA:71,0
DA:72,0
DA:73,0
DA:74,0
LF:14
LH:0
end_of_record
SF:/Applications/Developpement/Qt/5.11.0/clang_64/lib/QtCore.framework/Headers/qscopedpointer.h
FN:116,_ZNK14QScopedPointerI11QObjectData21QScopedPointerDeleterIS0_EEptEv
FNDA:0,_ZNK14QScopedPointerI11QObjectData21QScopedPointerDeleterIS0_EEptEv
FNF:1
FNH:0
DA:118,0
LF:1
LH:0
end_of_record
SF:/Applications/Developpement/Qt/5.11.0/clang_64/lib/QtCore.framework/Headers/qstring.h
FN:952,_ZN7QStringC1ERKS_
FN:952,_ZN7QStringC2ERKS_
FN:1130,_ZN7QStringD2Ev
FN:1130,_ZN7QStringD1Ev
FNDA:0,_ZN7QStringC1ERKS_
FNDA:0,_ZN7QStringC2ERKS_
FNDA:0,_ZN7QStringD1Ev
FNDA:0,_ZN7QStringD2Ev
FNF:4
FNH:0
DA:952,0
DA:953,0
DA:1130,0
LF:3
LH:0
end_of_record
SF:/Library/Developer/CommandLineTools/usr/include/c++/v1/atomic
FN:927,_ZNKSt3__113__atomic_baseIiLb0EE4loadENS_12memory_orderE
FN:1019,_ZNSt3__113__atomic_baseIiLb1EE9fetch_addEiNS_12memory_orderE
FN:1025,_ZNSt3__113__atomic_baseIiLb1EE9fetch_subEiNS_12memory_orderE
FN:1057,_ZNSt3__113__atomic_baseIiLb1EEppEv
FN:1061,_ZNSt3__113__atomic_baseIiLb1EEmmEv
FNDA:0,_ZNKSt3__113__atomic_baseIiLb0EE4loadENS_12memory_orderE
FNDA:0,_ZNSt3__113__atomic_baseIiLb1EE9fetch_addEiNS_12memory_orderE
FNDA:0,_ZNSt3__113__atomic_baseIiLb1EE9fetch_subEiNS_12memory_orderE
FNDA:0,_ZNSt3__113__atomic_baseIiLb1EEppEv
FNDA:0,_ZNSt3__113__atomic_baseIiLb1EEmmEv
FNF:5
FNH:0
DA:929,0
DA:1020,0
DA:1026,0
DA:1057,0
DA:1061,0
LF:5
LH:0
end_of_record
SF:/tmp/build-tests-Desktop_Qt_5_11_0_clang_64bit-Debug/tst_testmessagefactory/moc_SerialPortController.cpp
FN:92,_ZN20SerialPortController18qt_static_metacallEP7QObjectN11QMetaObject4CallEiPPv
FN:146,_ZNK20SerialPortController10metaObjectEv
FN:151,_ZN20SerialPortController11qt_metacastEPKc
FN:159,_ZN20SerialPortController11qt_metacallEN11QMetaObject4CallEiPPv
FN:177,_ZN20SerialPortController10portOpenedEv
FN:183,_ZN20SerialPortController13portNotOpenedEv
FN:189,_ZN20SerialPortController12dataReceivedE10QByteArray
FN:196,_ZN20SerialPortController11dataWrittenEx
FNDA:0,_ZN20SerialPortController18qt_static_metacallEP7QObjectN11QMetaObject4CallEiPPv
FNDA:0,_ZNK20SerialPortController10metaObjectEv
FNDA:0,_ZN20SerialPortController11qt_metacastEPKc
FNDA:0,_ZN20SerialPortController11qt_metacallEN11QMetaObject4CallEiPPv
FNDA:0,_ZN20SerialPortController10portOpenedEv
FNDA:0,_ZN20SerialPortController13portNotOpenedEv
FNDA:0,_ZN20SerialPortController12dataReceivedE10QByteArray
FNDA:0,_ZN20SerialPortController11dataWrittenEx
FNF:8
FNH:0
DA:94,0
DA:95,0
DA:97,0
DA:98,0
DA:99,0
DA:100,0
DA:101,0
DA:102,0
DA:103,0
DA:104,0
DA:106,0
DA:107,0
DA:108,0
DA:111,0
DA:112,0
DA:113,0
DA:118,0
DA:119,0
DA:120,0
DA:125,0
DA:126,0
DA:127,0
DA:132,0
DA:133,0
DA:134,0
DA:137,0
DA:138,0
DA:148,0
DA:153,0
DA:154,0
DA:155,0
DA:156,0
DA:157,0
DA:161,0
DA:162,0
DA:163,0
DA:164,0
DA:165,0
DA:166,0
DA:167,0
DA:168,0
DA:169,0
DA:170,0
DA:171,0
DA:172,0
DA:173,0
DA:174,0
DA:179,0
DA:180,0
DA:185,0
DA:186,0
DA:191,0
DA:192,0
DA:193,0
DA:198,0
DA:199,0
DA:200,0
LF:57
LH:0
end_of_record
TN:
SF:/Applications/Developpement/Qt/5.11.0/clang_64/lib/QtCore.framework/Headers/qarraydata.h
FN:57,_ZN10QArrayData4dataEv
FN:206,_ZN15QTypedArrayDataIcE4dataEv
FN:206,_ZN15QTypedArrayDataItE4dataEv
FN:234,_ZN15QTypedArrayDataIcE10deallocateEP10QArrayData
FN:234,_ZN15QTypedArrayDataItE10deallocateEP10QArrayData
FNDA:0,_ZN10QArrayData4dataEv
FNDA:0,_ZN15QTypedArrayDataItE4dataEv
FNDA:0,_ZN15QTypedArrayDataIcE4dataEv
FNDA:0,_ZN15QTypedArrayDataItE10deallocateEP10QArrayData
FNDA:0,_ZN15QTypedArrayDataIcE10deallocateEP10QArrayData
FNF:5
FNH:0
DA:59,0
DA:61,0
DA:206,0
DA:237,0
DA:238,0
LF:5
LH:0
end_of_record
SF:/Applications/Developpement/Qt/5.11.0/clang_64/lib/QtCore.framework/Headers/qatomic.h
FN:60,_ZN14QAtomicIntegerIiEC2Ei
FN:162,_ZN10QAtomicIntC2Ei
FN:162,_ZN10QAtomicIntC1Ei
FNDA:0,_ZN14QAtomicIntegerIiEC2Ei
FNDA:0,_ZN10QAtomicIntC1Ei
FNDA:0,_ZN10QAtomicIntC2Ei
FNF:3
FNH:0
DA:60,0
DA:162,0
LF:2
LH:0
end_of_record
SF:/Applications/Developpement/Qt/5.11.0/clang_64/lib/QtCore.framework/Headers/qatomic_cxx11.h
FN:225,_ZN10QAtomicOpsIiE4loadIiEET_RKNSt3__16atomicIS2_EE
FN:263,_ZN10QAtomicOpsIiE3refIiEEbRNSt3__16atomicIT_EE
FN:269,_ZN10QAtomicOpsIiE5derefIiEEbRNSt3__16atomicIT_EE
FNDA:0,_ZN10QAtomicOpsIiE4loadIiEET_RKNSt3__16atomicIS2_EE
FNDA:0,_ZN10QAtomicOpsIiE3refIiEEbRNSt3__16atomicIT_EE
FNDA:0,_ZN10QAtomicOpsIiE5derefIiEEbRNSt3__16atomicIT_EE
FNF:3
FNH:0
DA:227,0
DA:265,0
DA:271,0
LF:3
LH:0
end_of_record
SF:/Applications/Developpement/Qt/5.11.0/clang_64/lib/QtCore.framework/Headers/qbasicatomic.h
FN:91,_ZNK19QBasicAtomicIntegerIiE4loadEv
FN:102,_ZN19QBasicAtomicIntegerIiE3refEv
FN:103,_ZN19QBasicAtomicIntegerIiE5derefEv
FN:209,_ZN19QBasicAtomicIntegerIiEC2Ei
FNDA:0,_ZNK19QBasicAtomicIntegerIiE4loadEv
FNDA:0,_ZN19QBasicAtomicIntegerIiE3refEv
FNDA:0,_ZN19QBasicAtomicIntegerIiE5derefEv
FNDA:0,_ZN19QBasicAtomicIntegerIiEC2Ei
FNF:4
FNH:0
DA:91,0
DA:102,0
DA:103,0
DA:209,0
LF:4
LH:0
end_of_record
SF:/Applications/Developpement/Qt/5.11.0/clang_64/lib/QtCore.framework/Headers/qbytearray.h
FN:76,_Z8qstrnlenPKcj
FN:265,_ZNO10QByteArray7toUpperEv
FN:469,_ZN10QByteArrayD2Ev
FN:469,_ZN10QByteArrayD1Ev
FN:470,_ZNK10QByteArray4sizeEv
FN:492,_ZNK10QByteArray9constDataEv
FN:498,_ZN10QByteArrayC2ERKS_
FN:498,_ZN10QByteArrayC1ERKS_
FNDA:0,_Z8qstrnlenPKcj
FNDA:0,_ZNO10QByteArray7toUpperEv
FNDA:0,_ZN10QByteArrayD1Ev
FNDA:0,_ZN10QByteArrayD2Ev
FNDA:0,_ZNK10QByteArray4sizeEv
FNDA:0,_ZNK10QByteArray9constDataEv
FNDA:0,_ZN10QByteArrayC1ERKS_
FNDA:0,_ZN10QByteArrayC2ERKS_
FNF:8
FNH:0
DA:78,0
DA:79,0
DA:80,0
DA:81,0
DA:82,0
DA:83,0
DA:266,0
DA:469,0
DA:471,0
DA:493,0
DA:498,0
DA:499,0
LF:12
LH:0
end_of_record
SF:/Applications/Developpement/Qt/5.11.0/clang_64/lib/QtCore.framework/Headers/qdebug.h
FN:116,_ZN6QDebugC2ERKS_
FN:116,_ZN6QDebugC1ERKS_
FN:125,_ZN6QDebug10maybeSpaceEv
FN:145,_ZN6QDebuglsEi
FN:153,_ZN6QDebuglsEPKc
FN:155,_ZN6QDebuglsERK7QString
FN:160,_ZN6QDebuglsERK10QByteArray
FN:372,_ZlsIN11QSerialPort15SerialPortErrorEENSt3__19enable_ifIXsr9QtPrivate13IsQEnumHelperIT_EE5ValueE6QDebugE4typeES5_S4_
FNDA:0,_ZN6QDebugC1ERKS_
FNDA:0,_ZN6QDebugC2ERKS_
FNDA:0,_ZN6QDebug10maybeSpaceEv
FNDA:0,_ZN6QDebuglsEi
FNDA:0,_ZN6QDebuglsEPKc
FNDA:0,_ZN6QDebuglsERK7QString
FNDA:0,_ZN6QDebuglsERK10QByteArray
FNDA:0,_ZlsIN11QSerialPort15SerialPortErrorEENSt3__19enable_ifIXsr9QtPrivate13IsQEnumHelperIT_EE5ValueE6QDebugE4typeES5_S4_
FNF:8
FNH:0
DA:116,0
DA:125,0
DA:145,0
DA:153,0
DA:155,0
DA:160,0
DA:374,0
DA:375,0
DA:376,0
LF:9
LH:0
end_of_record
SF:/Applications/Developpement/Qt/5.11.0/clang_64/lib/QtCore.framework/Headers/qflags.h
FN:120,_ZN6QFlagsIN9QIODevice12OpenModeFlagEEC2ES1_
FN:120,_ZN6QFlagsIN9QIODevice12OpenModeFlagEEC1ES1_
FN:120,_ZN6QFlagsIN11QSerialPort9DirectionEEC2ES1_
FN:120,_ZN6QFlagsIN11QSerialPort9DirectionEEC1ES1_
FNDA:0,_ZN6QFlagsIN9QIODevice12OpenModeFlagEEC1ES1_
FNDA:0,_ZN6QFlagsIN11QSerialPort9DirectionEEC1ES1_
FNDA:0,_ZN6QFlagsIN9QIODevice12OpenModeFlagEEC2ES1_
FNDA:0,_ZN6QFlagsIN11QSerialPort9DirectionEEC2ES1_
FNF:4
FNH:0
DA:120,0
LF:1
LH:0
end_of_record
SF:/Applications/Developpement/Qt/5.11.0/clang_64/lib/QtCore.framework/Headers/qglobal.h
FN:963,_Z8qAsConstI5QListI15QSerialPortInfoEERNSt3__19add_constIT_E4typeERS5_
FN:973,_ZN9QtPrivate17QForeachContainerI5QListI15QSerialPortInfoEED2Ev
FN:973,_ZN9QtPrivate17QForeachContainerI5QListI15QSerialPortInfoEED1Ev
FN:976,_ZN9QtPrivate17QForeachContainerI5QListI15QSerialPortInfoEEC2ERKS3_
FN:976,_ZN9QtPrivate17QForeachContainerI5QListI15QSerialPortInfoEEC1ERKS3_
FN:1002,_ZN9QtPrivate21qMakeForeachContainerIR5QListI15QSerialPortInfoEEENS_17QForeachContainerINSt3__15decayIT_E4typeEEEOS8_
FNDA:0,_Z8qAsConstI5QListI15QSerialPortInfoEERNSt3__19add_constIT_E4typeERS5_
FNDA:0,_ZN9QtPrivate17QForeachContainerI5QListI15QSerialPortInfoEED1Ev
FNDA:0,_ZN9QtPrivate17QForeachContainerI5QListI15QSerialPortInfoEED2Ev
FNDA:0,_ZN9QtPrivate17QForeachContainerI5QListI15QSerialPortInfoEEC1ERKS3_
FNDA:0,_ZN9QtPrivate17QForeachContainerI5QListI15QSerialPortInfoEEC2ERKS3_
FNDA:0,_ZN9QtPrivate21qMakeForeachContainerIR5QListI15QSerialPortInfoEEENS_17QForeachContainerINSt3__15decayIT_E4typeEEEOS8_
FNF:6
FNH:0
DA:963,0
DA:973,0
DA:976,0
DA:998,0
DA:1004,0
LF:5
LH:0
end_of_record
SF:/Applications/Developpement/Qt/5.11.0/clang_64/lib/QtCore.framework/Headers/qiodevice.h
FN:136,_ZN9QIODevice5writeERK10QByteArray
FNDA:0,_ZN9QIODevice5writeERK10QByteArray
FNF:1
FNH:0
DA:137,0
LF:1
LH:0
end_of_record
SF:/Applications/Developpement/Qt/5.11.0/clang_64/lib/QtCore.framework/Headers/qlist.h
FN:75,_ZN19QListSpecialMethodsI15QSerialPortInfoED2Ev
FN:100,_ZN9QListData7disposeEv
FN:113,_ZNK9QListData4sizeEv
FN:116,_ZNK9QListData5beginEv
FN:117,_ZNK9QListData3endEv
FN:142,_ZN5QListI15QSerialPortInfoE4Node1tEv
FN:151,_ZN5QListI7QStringEC2Ev
FN:170,_ZNK5QListI15QSerialPortInfoE4sizeEv
FN:287,_ZN5QListI15QSerialPortInfoE14const_iteratorC1EPNS1_4NodeE
FN:287,_ZN5QListI15QSerialPortInfoE14const_iteratorC2EPNS1_4NodeE
FN:298,_ZNK5QListI15QSerialPortInfoE14const_iteratordeEv
FN:302,_ZNK5QListI15QSerialPortInfoE14const_iteratorneERKS2_
FN:307,_ZN5QListI15QSerialPortInfoE14const_iteratorppEv
FN:323,_ZNK5QListI15QSerialPortInfoE5beginEv
FN:327,_ZNK5QListI15QSerialPortInfoE3endEv
FN:433,_ZN5QListI7QStringE14node_constructEPNS1_4NodeERKS0_
FN:449,_ZN5QListI7QStringE13node_destructEPNS1_4NodeE
FN:456,_ZN5QListI7QStringE9node_copyEPNS1_4NodeES3_S3_
FN:456,_ZN5QListI15QSerialPortInfoE9node_copyEPNS1_4NodeES3_S3_
FN:491,_ZN5QListI7QStringE13node_destructEPNS1_4NodeES3_
FN:491,_ZN5QListI15QSerialPortInfoE13node_destructEPNS1_4NodeES3_
FN:579,_ZN5QListI7QStringE6appendERKS0_
FN:753,_ZN5QListI7QStringE18detach_helper_growEii
FN:806,_ZN5QListI15QSerialPortInfoEC2ERKS1_
FN:806,_ZN5QListI15QSerialPortInfoEC1ERKS1_
FN:824,_ZN5QListI7QStringED2Ev
FN:824,_ZN5QListI15QSerialPortInfoED2Ev
FN:824,_ZN5QListI15QSerialPortInfoED1Ev
FN:863,_ZN5QListI7QStringE7deallocEPN9QListData4DataE
FN:863,_ZN5QListI15QSerialPortInfoE7deallocEPN9QListData4DataE
FNDA:0,_ZN19QListSpecialMethodsI15QSerialPortInfoED2Ev
FNDA:0,_ZN9QListData7disposeEv
FNDA:0,_ZNK9QListData4sizeEv
FNDA:0,_ZNK9QListData5beginEv
FNDA:0,_ZNK9QListData3endEv
FNDA:0,_ZN5QListI15QSerialPortInfoE4Node1tEv
FNDA:0,_ZN5QListI7QStringEC2Ev
FNDA:0,_ZNK5QListI15QSerialPortInfoE4sizeEv
FNDA:0,_ZN5QListI15QSerialPortInfoE14const_iteratorC1EPNS1_4NodeE
FNDA:0,_ZN5QListI15QSerialPortInfoE14const_iteratorC2EPNS1_4NodeE
FNDA:0,_ZNK5QListI15QSerialPortInfoE14const_iteratordeEv
FNDA:0,_ZNK5QListI15QSerialPortInfoE14const_iteratorneERKS2_
FNDA:0,_ZN5QListI15QSerialPortInfoE14const_iteratorppEv
FNDA:0,_ZNK5QListI15QSerialPortInfoE5beginEv
FNDA:0,_ZNK5QListI15QSerialPortInfoE3endEv
FNDA:0,_ZN5QListI7QStringE14node_constructEPNS1_4NodeERKS0_
FNDA:0,_ZN5QListI7QStringE13node_destructEPNS1_4NodeE
FNDA:0,_ZN5QListI7QStringE9node_copyEPNS1_4NodeES3_S3_
FNDA:0,_ZN5QListI15QSerialPortInfoE9node_copyEPNS1_4NodeES3_S3_
FNDA:0,_ZN5QListI7QStringE13node_destructEPNS1_4NodeES3_
FNDA:0,_ZN5QListI15QSerialPortInfoE13node_destructEPNS1_4NodeES3_
FNDA:0,_ZN5QListI7QStringE6appendERKS0_
FNDA:0,_ZN5QListI7QStringE18detach_helper_growEii
FNDA:0,_ZN5QListI15QSerialPortInfoEC1ERKS1_
FNDA:0,_ZN5QListI15QSerialPortInfoEC2ERKS1_
FNDA:0,_ZN5QListI15QSerialPortInfoED1Ev
FNDA:0,_ZN5QListI7QStringED2Ev
FNDA:0,_ZN5QListI15QSerialPortInfoED2Ev
FNDA:0,_ZN5QListI7QStringE7deallocEPN9QListData4DataE
FNDA:0,_ZN5QListI15QSerialPortInfoE7deallocEPN9QListData4DataE
FNF:30
FNH:0
DA:75,0
DA:100,0
DA:113,0
DA:116,0
DA:117,0
DA:143,0
DA:144,0
DA:151,0
DA:170,0
DA:287,0
DA:298,0
DA:302,0
DA:307,0
DA:323,0
DA:327,0
DA:436,0
DA:446,0
DA:452,0
DA:453,0
DA:458,0
DA:461,0
DA:462,0
DA:463,0
DA:464,0
DA:466,0
DA:467,0
DA:468,0
DA:469,0
DA:470,0
DA:474,0
DA:475,0
DA:476,0
DA:477,0
DA:488,0
DA:494,0
DA:496,0
DA:497,0
DA:581,0
DA:582,0
DA:584,0
DA:585,0
DA:586,0
DA:587,0
DA:588,0
DA:589,0
DA:600,0
DA:602,0
DA:603,0
DA:604,0
DA:605,0
DA:606,0
DA:607,0
DA:610,0
DA:755,0
DA:756,0
DA:758,0
DA:759,0
DA:760,0
DA:761,0
DA:762,0
DA:763,0
DA:764,0
DA:766,0
DA:767,0
DA:768,0
DA:769,0
DA:770,0
DA:771,0
DA:772,0
DA:773,0
DA:774,0
DA:776,0
DA:777,0
DA:779,0
DA:780,0
DA:807,0
DA:808,0
DA:809,0
DA:810,0
DA:813,0
DA:814,0
DA:815,0
DA:816,0
DA:817,0
DA:818,0
DA:819,0
DA:820,0
DA:821,0
DA:825,0
DA:826,0
DA:827,0
DA:828,0
DA:865,0
DA:866,0
DA:867,0
DA:868,0
LF:96
LH:0
end_of_record
SF:/Applications/Developpement/Qt/5.11.0/clang_64/lib/QtCore.framework/Headers/qlogging.h
FN:68,_ZN18QMessageLogContextC2EPKciS1_S1_
FN:68,_ZN18QMessageLogContextC1EPKciS1_S1_
FN:91,_ZN14QMessageLoggerC1EPKciS1_
FN:91,_ZN14QMessageLoggerC2EPKciS1_
FNDA:0,_ZN18QMessageLogContextC1EPKciS1_S1_
FNDA:0,_ZN18QMessageLogContextC2EPKciS1_S1_
FNDA:0,_ZN14QMessageLoggerC1EPKciS1_
FNDA:0,_ZN14QMessageLoggerC2EPKciS1_
FNF:4
FNH:0
DA:69,0
DA:92,0
LF:2
LH:0
end_of_record
SF:/Applications/Developpement/Qt/5.11.0/clang_64/lib/QtCore.framework/Headers/qmutex.h
FN:199,_ZN12QMutexLockerC1EP11QBasicMutex
FN:199,_ZN12QMutexLockerC2EP11QBasicMutex
FN:213,_ZN12QMutexLockerD1Ev
FN:213,_ZN12QMutexLockerD2Ev
FN:215,_ZN12QMutexLocker6unlockEv
FN:238,_ZNK12QMutexLocker5mutexEv
FNDA:0,_ZN12QMutexLockerC1EP11QBasicMutex
FNDA:0,_ZN12QMutexLockerC2EP11QBasicMutex
FNDA:0,_ZN12QMutexLockerD1Ev
FNDA:0,_ZN12QMutexLockerD2Ev
FNDA:0,_ZN12QMutexLocker6unlockEv
FNDA:0,_ZNK12QMutexLocker5mutexEv
FNF:6
FNH:0
DA:200,0
DA:201,0
DA:203,0
DA:204,0
DA:206,0
DA:207,0
DA:208,0
DA:209,0
DA:213,0
DA:217,0
DA:218,0
DA:219,0
DA:220,0
DA:221,0
DA:240,0
LF:15
LH:0
end_of_record
SF:/Applications/Developpement/Qt/5.11.0/clang_64/lib/QtCore.framework/Headers/qobject.h
FN:228,_ZN7QObject7connectIM9QIODeviceFvvEM20SerialPortControllerFvvEEEN11QMetaObject10ConnectionEPKN9QtPrivate15FunctionPointerIT_E6ObjectESB_PKNSA_IT0_E6ObjectESG_N2Qt14ConnectionTypeE
FNDA:0,_ZN7QObject7connectIM9QIODeviceFvvEM20SerialPortControllerFvvEEEN11QMetaObject10ConnectionEPKN9QtPrivate15FunctionPointerIT_E6ObjectESB_PKNSA_IT0_E6ObjectESG_N2Qt14ConnectionTypeE
FNF:1
FNH:0
DA:246,0
DA:247,0
DA:248,0
DA:250,0
DA:251,0
DA:252,0
DA:253,0
DA:254,0
DA:255,0
LF:9
LH:0
end_of_record
SF:/Applications/Developpement/Qt/5.11.0/clang_64/lib/QtCore.framework/Headers/qobject_impl.h
FN:73,_ZN9QtPrivate15ConnectionTypesINS_4ListIJEEELb1EE5typesEv
FNDA:0,_ZN9QtPrivate15ConnectionTypesINS_4ListIJEEELb1EE5typesEv
FNF:1
FNH:0
DA:73,0
LF:1
LH:0
end_of_record
SF:/Applications/Developpement/Qt/5.11.0/clang_64/lib/QtCore.framework/Headers/qobjectdefs_impl.h
FN:88,_ZN9QtPrivate16ApplyReturnValueIvEC1EPv
FN:88,_ZN9QtPrivate16ApplyReturnValueIvEC2EPv
FN:133,_ZN9QtPrivate11FunctorCallINS_11IndexesListIJEEENS_4ListIJEEEvM20SerialPortControllerFvvEE4callES7_PS5_PPv
FN:166,_ZN9QtPrivate15FunctionPointerIM20SerialPortControllerFvvEE4callINS_4ListIJEEEvEEvS3_PS1_PPv
FN:369,_ZN9QtPrivate15QSlotObjectBaseC2EPFviPS0_P7QObjectPPvPbE
FN:378,_ZN9QtPrivate15QSlotObjectBaseD2Ev
FN:385,_ZN9QtPrivate11QSlotObjectIM20SerialPortControllerFvvENS_4ListIJEEEvED1Ev
FN:385,_ZN9QtPrivate11QSlotObjectIM20SerialPortControllerFvvENS_4ListIJEEEvED2Ev
FN:389,_ZN9QtPrivate11QSlotObjectIM20SerialPortControllerFvvENS_4ListIJEEEvE4implEiPNS_15QSlotObjectBaseEP7QObjectPPvPb
FN:405,_ZN9QtPrivate11QSlotObjectIM20SerialPortControllerFvvENS_4ListIJEEEvEC1ES3_
FN:405,_ZN9QtPrivate11QSlotObjectIM20SerialPortControllerFvvENS_4ListIJEEEvEC2ES3_
FNDA:0,_ZN9QtPrivate16ApplyReturnValueIvEC1EPv
FNDA:0,_ZN9QtPrivate16ApplyReturnValueIvEC2EPv
FNDA:0,_ZN9QtPrivate11FunctorCallINS_11IndexesListIJEEENS_4ListIJEEEvM20SerialPortControllerFvvEE4callES7_PS5_PPv
FNDA:0,_ZN9QtPrivate15FunctionPointerIM20SerialPortControllerFvvEE4callINS_4ListIJEEEvEEvS3_PS1_PPv
FNDA:0,_ZN9QtPrivate15QSlotObjectBaseC2EPFviPS0_P7QObjectPPvPbE
FNDA:0,_ZN9QtPrivate15QSlotObjectBaseD2Ev
FNDA:0,_ZN9QtPrivate11QSlotObjectIM20SerialPortControllerFvvENS_4ListIJEEEvED1Ev
FNDA:0,_ZN9QtPrivate11QSlotObjectIM20SerialPortControllerFvvENS_4ListIJEEEvED2Ev
FNDA:0,_ZN9QtPrivate11QSlotObjectIM20SerialPortControllerFvvENS_4ListIJEEEvE4implEiPNS_15QSlotObjectBaseEP7QObjectPPvPb
FNDA:0,_ZN9QtPrivate11QSlotObjectIM20SerialPortControllerFvvENS_4ListIJEEEvEC1ES3_
FNDA:0,_ZN9QtPrivate11QSlotObjectIM20SerialPortControllerFvvENS_4ListIJEEEvEC2ES3_
FNF:11
FNH:0
DA:88,0
DA:134,0
DA:135,0
DA:167,0
DA:168,0
DA:369,0
DA:378,0
DA:385,0
DA:391,0
DA:393,0
DA:394,0
DA:396,0
DA:397,0
DA:399,0
DA:400,0
DA:402,0
DA:403,0
DA:405,0
LF:18
LH:0
end_of_record
SF:/Applications/Developpement/Qt/5.11.0/clang_64/lib/QtCore.framework/Headers/qrefcount.h
FN:54,_ZN9QtPrivate8RefCount3refEv
FN:65,_ZN9QtPrivate8RefCount5derefEv
FN:99,_ZNK9QtPrivate8RefCount8isSharedEv
FNDA:0,_ZN9QtPrivate8RefCount3refEv
FNDA:0,_ZN9QtPrivate8RefCount5derefEv
FNDA:0,_ZNK9QtPrivate8RefCount8isSharedEv
FNF:3
FNH:0
DA:55,0
DA:57,0
DA:58,0
DA:60,0
DA:61,0
DA:62,0
DA:63,0
DA:66,0
DA:68,0
DA:69,0
DA:71,0
DA:72,0
DA:73,0
DA:74,0
DA:101,0
DA:102,0
LF:16
LH:0
end_of_record
SF:/Applications/Developpement/Qt/5.11.0/clang_64/lib/QtCore.framework/Headers/qstring.h
FN:567,_ZN7QString8fromUtf8EPKci
FN:693,_ZN7QStringC2EPKc
FN:693,_ZN7QStringC1EPKc
FN:696,_ZN7QStringC1ERK10QByteArray
FN:696,_ZN7QStringC2ERK10QByteArray
FN:928,_ZNK7QString6lengthEv
FN:944,_ZNK7QString9constDataEv
FN:952,_ZN7QStringC1ERKS_
FN:952,_ZN7QStringC2ERKS_
FN:1130,_ZN7QStringD2Ev
FN:1130,_ZN7QStringD1Ev
FNDA:0,_ZN7QString8fromUtf8EPKci
FNDA:0,_ZN7QStringC1EPKc
FNDA:0,_ZN7QStringC2EPKc
FNDA:0,_ZN7QStringC1ERK10QByteArray
FNDA:0,_ZN7QStringC2ERK10QByteArray
FNDA:0,_ZNK7QString6lengthEv
FNDA:0,_ZNK7QString9constDataEv
FNDA:0,_ZN7QStringC1ERKS_
FNDA:0,_ZN7QStringC2ERKS_
FNDA:0,_ZN7QStringD1Ev
FNDA:0,_ZN7QStringD2Ev
FNF:11
FNH:0
DA:569,0
DA:694,0
DA:695,0
DA:697,0
DA:698,0
DA:929,0
DA:945,0
DA:952,0
DA:953,0
DA:1130,0
LF:10
LH:0
end_of_record
SF:/Applications/Developpement/Qt/5.11.0/clang_64/lib/QtCore.framework/Headers/qstringlist.h
FN:69,_ZN19QListSpecialMethodsI7QStringED2Ev
FN:99,_ZN11QStringListD1Ev
FN:99,_ZN11QStringListD2Ev
FN:103,_ZN11QStringListC2Ev
FN:103,_ZN11QStringListC1Ev
FN:125,_ZN11QStringListlsERK7QString
FNDA:0,_ZN19QListSpecialMethodsI7QStringED2Ev
FNDA:0,_ZN11QStringListD1Ev
FNDA:0,_ZN11QStringListD2Ev
FNDA:0,_ZN11QStringListC1Ev
FNDA:0,_ZN11QStringListC2Ev
FNDA:0,_ZN11QStringListlsERK7QString
FNF:6
FNH:0
DA:69,0
DA:99,0
DA:103,0
DA:126,0
LF:4
LH:0
end_of_record
SF:/Applications/Developpement/Qt/5.11.0/clang_64/lib/QtQml.framework/Headers/qqmldebug.h
FN:79,__cxx_global_var_init
FNDA:1,__cxx_global_var_init
FNF:1
FNH:1
DA:79,2
LF:1
LH:1
end_of_record
SF:/Applications/Developpement/Qt/5.11.0/clang_64/lib/QtSerialPort.framework/Headers/qserialport.h
FN:193,_Z14qt_getEnumNameN11QSerialPort15SerialPortErrorE
FN:193,_Z20qt_getEnumMetaObjectN11QSerialPort15SerialPortErrorE
FNDA:0,_Z20qt_getEnumMetaObjectN11QSerialPort15SerialPortErrorE
FNDA:0,_Z14qt_getEnumNameN11QSerialPort15SerialPortErrorE
FNF:2
FNH:0
DA:193,0
LF:1
LH:0
end_of_record
SF:/Library/Developer/CommandLineTools/usr/include/c++/v1/atomic
FN:927,_ZNKSt3__113__atomic_baseIiLb0EE4loadENS_12memory_orderE
FN:985,_ZNSt3__113__atomic_baseIiLb0EEC2Ei
FN:1013,_ZNSt3__113__atomic_baseIiLb1EEC2Ei
FN:1019,_ZNSt3__113__atomic_baseIiLb1EE9fetch_addEiNS_12memory_orderE
FN:1025,_ZNSt3__113__atomic_baseIiLb1EE9fetch_subEiNS_12memory_orderE
FN:1057,_ZNSt3__113__atomic_baseIiLb1EEppEv
FN:1061,_ZNSt3__113__atomic_baseIiLb1EEmmEv
FN:1094,_ZNSt3__16atomicIiEC2Ei
FN:1094,_ZNSt3__16atomicIiEC1Ei
FNDA:0,_ZNKSt3__113__atomic_baseIiLb0EE4loadENS_12memory_orderE
FNDA:0,_ZNSt3__113__atomic_baseIiLb0EEC2Ei
FNDA:0,_ZNSt3__113__atomic_baseIiLb1EEC2Ei
FNDA:0,_ZNSt3__113__atomic_baseIiLb1EE9fetch_addEiNS_12memory_orderE
FNDA:0,_ZNSt3__113__atomic_baseIiLb1EE9fetch_subEiNS_12memory_orderE
FNDA:0,_ZNSt3__113__atomic_baseIiLb1EEppEv
FNDA:0,_ZNSt3__113__atomic_baseIiLb1EEmmEv
FNDA:0,_ZNSt3__16atomicIiEC1Ei
FNDA:0,_ZNSt3__16atomicIiEC2Ei
FNF:9
FNH:0
DA:929,0
DA:985,0
DA:1013,0
DA:1020,0
DA:1026,0
DA:1057,0
DA:1061,0
DA:1094,0
LF:8
LH:0
end_of_record
SF:/Library/Developer/CommandLineTools/usr/include/c++/v1/type_traits
FN:2299,_ZNSt3__17forwardIR5QListI15QSerialPortInfoEEEOT_RNS_16remove_referenceIS5_E4typeE
FNDA:0,_ZNSt3__17forwardIR5QListI15QSerialPortInfoEEEOT_RNS_16remove_referenceIS5_E4typeE
FNF:1
FNH:0
DA:2301,0
LF:1
LH:0
end_of_record
SF:/Users/tristan/Documents/Sources/BurgerQuiz/controllers/SerialPortController.cpp
FN:9,_ZN20SerialPortControllerC1EP7QObject
FN:9,_ZN20SerialPortControllerC2EP7QObject
FN:13,_ZN20SerialPortControllerD2Ev
FN:13,_ZN20SerialPortControllerD1Ev
FN:13,_ZN20SerialPortControllerD0Ev
FN:17,_ZN20SerialPortController14availablePortsEv
FN:40,_ZN20SerialPortController16internalOpenPortE7QString
FN:66,_ZN20SerialPortController23internalWriteDataOnPortE10QByteArray
FN:85,_ZN20SerialPortController9closePortEv
FN:93,__cxx_global_var_init.20
FN:94,_ZN20SerialPortController11onReadyReadEv
FNDA:0,_ZN20SerialPortControllerC2EP7QObject
FNDA:0,_ZN20SerialPortControllerC1EP7QObject
FNDA:0,_ZN20SerialPortControllerD2Ev
FNDA:0,_ZN20SerialPortControllerD1Ev
FNDA:0,_ZN20SerialPortControllerD0Ev
FNDA:0,_ZN20SerialPortController14availablePortsEv
FNDA:0,_ZN20SerialPortController16internalOpenPortE7QString
FNDA:0,_ZN20SerialPortController23internalWriteDataOnPortE10QByteArray
FNDA:0,_ZN20SerialPortController9closePortEv
FNDA:1,__cxx_global_var_init.20
FNDA:0,_ZN20SerialPortController11onReadyReadEv
FNF:11
FNH:1
DA:10,0
DA:11,0
DA:14,0
DA:15,0
DA:19,0
DA:20,0
DA:21,0
DA:23,0
DA:24,0
DA:26,0
DA:28,0
DA:29,0
DA:30,0
DA:33,0
DA:34,0
DA:35,0
DA:37,0
DA:38,0
DA:42,0
DA:44,0
DA:45,0
DA:46,0
DA:47,0
DA:50,0
DA:52,0
DA:53,0
DA:54,0
DA:55,0
DA:56,0
DA:57,0
DA:58,0
DA:59,0
DA:60,0
DA:61,0
DA:62,0
DA:64,0
DA:68,0
DA:69,0
DA:70,0
DA:73,0
DA:74,0
DA:75,0
DA:76,0
DA:77,0
DA:78,0
DA:79,0
DA:80,0
DA:83,0
DA:87,0
DA:88,0
DA:89,0
DA:90,0
DA:91,0
DA:93,2
DA:97,0
DA:99,0
DA:100,0
DA:101,0
DA:102,0
DA:103,0
DA:104,0
LF:61
LH:1
end_of_record
SF:/Users/tristan/Documents/Sources/BurgerQuiz/helpers/DebugHelper.hpp
FN:16,_ZN11DebugHelper17byteArrayToStringE10QByteArray
FNDA:0,_ZN11DebugHelper17byteArrayToStringE10QByteArray
FNF:1
FNH:0
DA:17,0
DA:18,0
LF:2
LH:0
end_of_record
TN:
SF:/Applications/Developpement/Qt/5.11.0/clang_64/lib/QtCore.framework/Headers/qarraydata.h
FN:234,_ZN15QTypedArrayDataItE10deallocateEP10QArrayData
FNDA:32,_ZN15QTypedArrayDataItE10deallocateEP10QArrayData
FNF:1
FNH:1
DA:237,32
DA:238,32
LF:2
LH:2
end_of_record
SF:/Applications/Developpement/Qt/5.11.0/clang_64/lib/QtCore.framework/Headers/qatomic_cxx11.h
FN:225,_ZN10QAtomicOpsIiE4loadIiEET_RKNSt3__16atomicIS2_EE
FN:263,_ZN10QAtomicOpsIiE3refIiEEbRNSt3__16atomicIT_EE
FN:269,_ZN10QAtomicOpsIiE5derefIiEEbRNSt3__16atomicIT_EE
FNDA:81,_ZN10QAtomicOpsIiE4loadIiEET_RKNSt3__16atomicIS2_EE
FNDA:1,_ZN10QAtomicOpsIiE3refIiEEbRNSt3__16atomicIT_EE
FNDA:67,_ZN10QAtomicOpsIiE5derefIiEEbRNSt3__16atomicIT_EE
FNF:3
FNH:3
DA:227,81
DA:265,1
DA:271,67
LF:3
LH:3
end_of_record
SF:/Applications/Developpement/Qt/5.11.0/clang_64/lib/QtCore.framework/Headers/qbasicatomic.h
FN:91,_ZNK19QBasicAtomicIntegerIiE4loadEv
FN:102,_ZN19QBasicAtomicIntegerIiE3refEv
FN:103,_ZN19QBasicAtomicIntegerIiE5derefEv
FNDA:81,_ZNK19QBasicAtomicIntegerIiE4loadEv
FNDA:1,_ZN19QBasicAtomicIntegerIiE3refEv
FNDA:67,_ZN19QBasicAtomicIntegerIiE5derefEv
FNF:3
FNH:3
DA:91,81
DA:102,2
DA:103,67
LF:3
LH:3
end_of_record
SF:/Applications/Developpement/Qt/5.11.0/clang_64/lib/QtCore.framework/Headers/qglobal.h
FN:963,_Z8qAsConstI5QListI15QSerialPortInfoEERNSt3__19add_constIT_E4typeERS5_
FN:973,_ZN9QtPrivate17QForeachContainerI5QListI15QSerialPortInfoEED2Ev
FN:973,_ZN9QtPrivate17QForeachContainerI5QListI15QSerialPortInfoEED1Ev
FN:976,_ZN9QtPrivate17QForeachContainerI5QListI15QSerialPortInfoEEC2ERKS3_
FN:976,_ZN9QtPrivate17QForeachContainerI5QListI15QSerialPortInfoEEC1ERKS3_
FN:977,_ZN9QtPrivate17QForeachContainerI5QListI15QSerialPortInfoEEC2EOS3_
FN:977,_ZN9QtPrivate17QForeachContainerI5QListI15QSerialPortInfoEEC1EOS3_
FN:1002,_ZN9QtPrivate21qMakeForeachContainerIR5QListI15QSerialPortInfoEEENS_17QForeachContainerINSt3__15decayIT_E4typeEEEOS8_
FN:1002,_ZN9QtPrivate21qMakeForeachContainerI5QListI15QSerialPortInfoEEENS_17QForeachContainerINSt3__15decayIT_E4typeEEEOS7_
FNDA:6,_Z8qAsConstI5QListI15QSerialPortInfoEERNSt3__19add_constIT_E4typeERS5_
FNDA:3,_ZN9QtPrivate17QForeachContainerI5QListI15QSerialPortInfoEED1Ev
FNDA:3,_ZN9QtPrivate17QForeachContainerI5QListI15QSerialPortInfoEED2Ev
FNDA:2,_ZN9QtPrivate17QForeachContainerI5QListI15QSerialPortInfoEEC1ERKS3_
FNDA:2,_ZN9QtPrivate17QForeachContainerI5QListI15QSerialPortInfoEEC2ERKS3_
FNDA:1,_ZN9QtPrivate17QForeachContainerI5QListI15QSerialPortInfoEEC1EOS3_
FNDA:1,_ZN9QtPrivate17QForeachContainerI5QListI15QSerialPortInfoEEC2EOS3_
FNDA:1,_ZN9QtPrivate21qMakeForeachContainerI5QListI15QSerialPortInfoEEENS_17QForeachContainerINSt3__15decayIT_E4typeEEEOS7_
FNDA:2,_ZN9QtPrivate21qMakeForeachContainerIR5QListI15QSerialPortInfoEEENS_17QForeachContainerINSt3__15decayIT_E4typeEEEOS8_
FNF:9
FNH:9
DA:963,6
DA:973,6
DA:976,6
DA:977,3
DA:998,3
DA:1004,3
LF:6
LH:6
end_of_record
SF:/Applications/Developpement/Qt/5.11.0/clang_64/lib/QtCore.framework/Headers/qlist.h
FN:75,_ZN19QListSpecialMethodsI15QSerialPortInfoED2Ev
FN:100,_ZN9QListData7disposeEv
FN:113,_ZNK9QListData4sizeEv
FN:116,_ZNK9QListData5beginEv
FN:117,_ZNK9QListData3endEv
FN:142,_ZN5QListI15QSerialPortInfoE4Node1tEv
FN:151,_ZN5QListI15QSerialPortInfoEC1Ev
FN:151,_ZN5QListI15QSerialPortInfoEC2Ev
FN:156,_ZN5QListI15QSerialPortInfoEC1EOS1_
FN:156,_ZN5QListI15QSerialPortInfoEC2EOS1_
FN:287,_ZN5QListI15QSerialPortInfoE14const_iteratorC1EPNS1_4NodeE
FN:287,_ZN5QListI15QSerialPortInfoE14const_iteratorC2EPNS1_4NodeE
FN:298,_ZNK5QListI15QSerialPortInfoE14const_iteratordeEv
FN:302,_ZNK5QListI15QSerialPortInfoE14const_iteratorneERKS2_
FN:307,_ZN5QListI15QSerialPortInfoE14const_iteratorppEv
FN:323,_ZNK5QListI15QSerialPortInfoE5beginEv
FN:327,_ZNK5QListI15QSerialPortInfoE3endEv
FN:343,_ZNK5QListI15QSerialPortInfoE5countEv
FN:343,_ZNK5QListI7QStringE5countEv
FN:385,_ZN5QListI15QSerialPortInfoElsERKS0_
FN:433,_ZN5QListI15QSerialPortInfoE14node_constructEPNS1_4NodeERKS0_
FN:456,_ZN5QListI15QSerialPortInfoE9node_copyEPNS1_4NodeES3_S3_
FN:491,_ZN5QListI15QSerialPortInfoE13node_destructEPNS1_4NodeES3_
FN:491,_ZN5QListI7QStringE13node_destructEPNS1_4NodeES3_
FN:579,_ZN5QListI15QSerialPortInfoE6appendERKS0_
FN:753,_ZN5QListI15QSerialPortInfoE18detach_helper_growEii
FN:806,_ZN5QListI15QSerialPortInfoEC2ERKS1_
FN:806,_ZN5QListI15QSerialPortInfoEC1ERKS1_
FN:824,_ZN5QListI15QSerialPortInfoED1Ev
FN:824,_ZN5QListI15QSerialPortInfoED2Ev
FN:824,_ZN5QListI7QStringED2Ev
FN:863,_ZN5QListI7QStringE7deallocEPN9QListData4DataE
FN:863,_ZN5QListI15QSerialPortInfoE7deallocEPN9QListData4DataE
FNDA:6,_ZN19QListSpecialMethodsI15QSerialPortInfoED2Ev
FNDA:0,_ZN9QListData7disposeEv
FNDA:3,_ZNK9QListData4sizeEv
FNDA:3,_ZNK9QListData5beginEv
FNDA:3,_ZNK9QListData3endEv
FNDA:20,_ZN5QListI15QSerialPortInfoE4Node1tEv
FNDA:1,_ZN5QListI15QSerialPortInfoEC1Ev
FNDA:1,_ZN5QListI15QSerialPortInfoEC2Ev
FNDA:1,_ZN5QListI15QSerialPortInfoEC1EOS1_
FNDA:1,_ZN5QListI15QSerialPortInfoEC2EOS1_
FNDA:6,_ZN5QListI15QSerialPortInfoE14const_iteratorC1EPNS1_4NodeE
FNDA:6,_ZN5QListI15QSerialPortInfoE14const_iteratorC2EPNS1_4NodeE
FNDA:20,_ZNK5QListI15QSerialPortInfoE14const_iteratordeEv
FNDA:23,_ZNK5QListI15QSerialPortInfoE14const_iteratorneERKS2_
FNDA:20,_ZN5QListI15QSerialPortInfoE14const_iteratorppEv
FNDA:3,_ZNK5QListI15QSerialPortInfoE5beginEv
FNDA:3,_ZNK5QListI15QSerialPortInfoE3endEv
FNDA:1,_ZNK5QListI15QSerialPortInfoE5countEv
FNDA:1,_ZNK5QListI7QStringE5countEv
FNDA:0,_ZN5QListI15QSerialPortInfoElsERKS0_
FNDA:0,_ZN5QListI15QSerialPortInfoE14node_constructEPNS1_4NodeERKS0_
FNDA:0,_ZN5QListI15QSerialPortInfoE9node_copyEPNS1_4NodeES3_S3_
FNDA:0,_ZN5QListI7QStringE13node_destructEPNS1_4NodeES3_
FNDA:2,_ZN5QListI15QSerialPortInfoE13node_destructEPNS1_4NodeES3_
FNDA:0,_ZN5QListI15QSerialPortInfoE6appendERKS0_
FNDA:0,_ZN5QListI15QSerialPortInfoE18detach_helper_growEii
FNDA:2,_ZN5QListI15QSerialPortInfoEC1ERKS1_
FNDA:2,_ZN5QListI15QSerialPortInfoEC2ERKS1_
FNDA:6,_ZN5QListI15QSerialPortInfoED1Ev
FNDA:1,_ZN5QListI7QStringED2Ev
FNDA:6,_ZN5QListI15QSerialPortInfoED2Ev
FNDA:0,_ZN5QListI7QStringE7deallocEPN9QListData4DataE
FNDA:2,_ZN5QListI15QSerialPortInfoE7deallocEPN9QListData4DataE
FNF:33
FNH:25
DA:75,6
DA:100,0
DA:113,3
DA:116,3
DA:117,3
DA:143,20
DA:144,20
DA:151,2
DA:157,2
DA:287,12
DA:298,20
DA:302,23
DA:307,20
DA:323,3
DA:327,3
DA:343,2
DA:386,0
DA:435,0
DA:446,0
DA:458,0
DA:461,0
DA:462,0
DA:463,0
DA:464,0
DA:466,0
DA:467,0
DA:468,0
DA:469,0
DA:470,0
DA:488,0
DA:494,84
DA:496,0
DA:497,2
DA:581,0
DA:582,0
DA:584,0
DA:585,0
DA:586,0
DA:587,0
DA:588,0
DA:589,0
DA:591,0
DA:593,0
DA:594,0
DA:595,0
DA:596,0
DA:597,0
DA:610,0
DA:755,0
DA:756,0
DA:758,0
DA:759,0
DA:760,0
DA:761,0
DA:762,0
DA:763,0
DA:764,0
DA:766,0
DA:767,0
DA:768,0
DA:769,0
DA:770,0
DA:771,0
DA:772,0
DA:773,0
DA:774,0
DA:776,0
DA:777,0
DA:779,0
DA:780,0
DA:807,2
DA:808,4
DA:809,2
DA:810,0
DA:813,0
DA:814,0
DA:815,0
DA:816,0
DA:817,0
DA:818,0
DA:819,0
DA:820,0
DA:821,4
DA:825,6
DA:826,7
DA:827,4
DA:828,13
DA:865,4
DA:866,2
DA:867,2
DA:868,2
LF:91
LH:29
end_of_record
SF:/Applications/Developpement/Qt/5.11.0/clang_64/lib/QtCore.framework/Headers/qrefcount.h
FN:54,_ZN9QtPrivate8RefCount3refEv
FN:65,_ZN9QtPrivate8RefCount5derefEv
FN:99,_ZNK9QtPrivate8RefCount8isSharedEv
FNDA:2,_ZN9QtPrivate8RefCount3refEv
FNDA:79,_ZN9QtPrivate8RefCount5derefEv
FNDA:0,_ZNK9QtPrivate8RefCount8isSharedEv
FNF:3
FNH:2
DA:55,2
DA:57,2
DA:58,0
DA:60,2
DA:61,1
DA:62,2
DA:63,2
DA:66,79
DA:68,79
DA:69,0
DA:71,79
DA:72,12
DA:73,67
DA:74,79
DA:101,0
DA:102,0
LF:16
LH:12
end_of_record
SF:/Applications/Developpement/Qt/5.11.0/clang_64/lib/QtCore.framework/Headers/qscopedpointer.h
FN:116,_ZNK14QScopedPointerI11QObjectData21QScopedPointerDeleterIS0_EEptEv
FNDA:9,_ZNK14QScopedPointerI11QObjectData21QScopedPointerDeleterIS0_EEptEv
FNF:1
FNH:1
DA:118,9
LF:1
LH:1
end_of_record
SF:/Applications/Developpement/Qt/5.11.0/clang_64/lib/QtCore.framework/Headers/qstring.h
FN:693,_ZN7QStringC1EPKc
FN:693,_ZN7QStringC2EPKc
FN:1130,_ZN7QStringD1Ev
FN:1130,_ZN7QStringD2Ev
FN:1179,_ZNK7QString8containsERKS_N2Qt15CaseSensitivityE
FNDA:20,_ZN7QStringC1EPKc
FNDA:20,_ZN7QStringC2EPKc
FNDA:72,_ZN7QStringD1Ev
FNDA:72,_ZN7QStringD2Ev
FNDA:10,_ZNK7QString8containsERKS_N2Qt15CaseSensitivityE
FNF:5
FNH:5
DA:694,60
DA:695,40
DA:1130,280
DA:1180,10
LF:4
LH:4
end_of_record
SF:/Applications/Developpement/Qt/5.11.0/clang_64/lib/QtCore.framework/Headers/qstringlist.h
FN:69,_ZN19QListSpecialMethodsI7QStringED2Ev
FN:99,_ZN11QStringListD1Ev
FN:99,_ZN11QStringListD2Ev
FN:216,_ZNK11QStringList8containsERK7QStringN2Qt15CaseSensitivityE
FNDA:1,_ZN19QListSpecialMethodsI7QStringED2Ev
FNDA:1,_ZN11QStringListD1Ev
FNDA:1,_ZN11QStringListD2Ev
FNDA:0,_ZNK11QStringList8containsERK7QStringN2Qt15CaseSensitivityE
FNF:4
FNH:3
DA:69,1
DA:99,2
DA:218,0
LF:3
LH:2
end_of_record
SF:/Applications/Developpement/Qt/5.11.0/clang_64/lib/QtTest.framework/Headers/qtestcase.h
FN:337,_ZN5QTest8qCompareIiEEbRKT_S3_PKcS5_S5_i
FNDA:1,_ZN5QTest8qCompareIiEEbRKT_S3_PKcS5_S5_i
FNF:1
FNH:1
DA:340,2
DA:341,1
LF:2
LH:2
end_of_record
SF:/Library/Developer/CommandLineTools/usr/include/c++/v1/atomic
FN:927,_ZNKSt3__113__atomic_baseIiLb0EE4loadENS_12memory_orderE
FN:1019,_ZNSt3__113__atomic_baseIiLb1EE9fetch_addEiNS_12memory_orderE
FN:1025,_ZNSt3__113__atomic_baseIiLb1EE9fetch_subEiNS_12memory_orderE
FN:1057,_ZNSt3__113__atomic_baseIiLb1EEppEv
FN:1061,_ZNSt3__113__atomic_baseIiLb1EEmmEv
FNDA:81,_ZNKSt3__113__atomic_baseIiLb0EE4loadENS_12memory_orderE
FNDA:1,_ZNSt3__113__atomic_baseIiLb1EE9fetch_addEiNS_12memory_orderE
FNDA:67,_ZNSt3__113__atomic_baseIiLb1EE9fetch_subEiNS_12memory_orderE
FNDA:1,_ZNSt3__113__atomic_baseIiLb1EEppEv
FNDA:67,_ZNSt3__113__atomic_baseIiLb1EEmmEv
FNF:5
FNH:5
DA:929,243
DA:1020,3
DA:1026,201
DA:1057,1
DA:1061,67
LF:5
LH:5
end_of_record
SF:/Library/Developer/CommandLineTools/usr/include/c++/v1/type_traits
FN:2290,_ZNSt3__14moveIR5QListI15QSerialPortInfoEEEONS_16remove_referenceIT_E4typeEOS6_
FN:2299,_ZNSt3__17forwardIR5QListI15QSerialPortInfoEEEOT_RNS_16remove_referenceIS5_E4typeE
FN:2299,_ZNSt3__17forwardI5QListI15QSerialPortInfoEEEOT_RNS_16remove_referenceIS4_E4typeE
FNDA:1,_ZNSt3__14moveIR5QListI15QSerialPortInfoEEEONS_16remove_referenceIT_E4typeEOS6_
FNDA:1,_ZNSt3__17forwardI5QListI15QSerialPortInfoEEEOT_RNS_16remove_referenceIS4_E4typeE
FNDA:2,_ZNSt3__17forwardIR5QListI15QSerialPortInfoEEEOT_RNS_16remove_referenceIS5_E4typeE
FNF:3
FNH:3
DA:2293,1
DA:2301,3
LF:2
LH:2
end_of_record
SF:/Users/tristan/Documents/Sources/BurgerQuiz/tests/tst_testserialportcontroller/tst_testserialportcontroller.cpp
FN:20,_ZN24TestSerialPortControllerC1Ev
FN:20,_ZN24TestSerialPortControllerC2Ev
FN:25,_ZN24TestSerialPortControllerD0Ev
FN:25,_ZN24TestSerialPortControllerD1Ev
FN:25,_ZN24TestSerialPortControllerD2Ev
FN:30,_ZN24TestSerialPortController26test_caseGetAvailablePortsEv
FN:46,main
FNDA:1,_ZN24TestSerialPortControllerC2Ev
FNDA:1,_ZN24TestSerialPortControllerC1Ev
FNDA:1,_ZN24TestSerialPortControllerD2Ev
FNDA:1,_ZN24TestSerialPortControllerD1Ev
FNDA:0,_ZN24TestSerialPortControllerD0Ev
FNDA:1,_ZN24TestSerialPortController26test_caseGetAvailablePortsEv
FNDA:1,main
FNF:7
FNH:6
DA:20,1
DA:21,3
DA:23,2
DA:26,1
DA:28,2
DA:32,1
DA:33,127
DA:34,40
DA:35,0
DA:36,0
DA:37,20
DA:39,1
DA:40,7
DA:41,8
DA:42,0
DA:43,0
DA:44,3
DA:46,3
LF:18
LH:14
end_of_record
SF:/tmp/build-tests-Desktop_Qt_5_11_0_clang_64bit-Debug/tst_testserialportcontroller/tst_testserialportcontroller.moc
FN:65,_ZN24TestSerialPortController18qt_static_metacallEP7QObjectN11QMetaObject4CallEiPPv
FN:84,_ZNK24TestSerialPortController10metaObjectEv
FN:89,_ZN24TestSerialPortController11qt_metacastEPKc
FN:97,_ZN24TestSerialPortController11qt_metacallEN11QMetaObject4CallEiPPv
FNDA:1,_ZN24TestSerialPortController18qt_static_metacallEP7QObjectN11QMetaObject4CallEiPPv
FNDA:9,_ZNK24TestSerialPortController10metaObjectEv
FNDA:0,_ZN24TestSerialPortController11qt_metacastEPKc
FNDA:0,_ZN24TestSerialPortController11qt_metacallEN11QMetaObject4CallEiPPv
FNF:4
FNH:2
DA:67,1
DA:68,1
DA:70,1
DA:71,1
DA:73,0
DA:74,1
DA:76,1
DA:86,27
DA:91,0
DA:92,0
DA:93,0
DA:94,0
DA:95,0
DA:99,0
DA:100,0
DA:101,0
DA:102,0
DA:103,0
DA:104,0
DA:105,0
DA:106,0
DA:107,0
DA:108,0
DA:109,0
DA:110,0
DA:111,0
DA:112,0
LF:27
LH:7
end_of_record
TN:
SF:/Applications/Developpement/Qt/5.11.0/clang_64/lib/QtCore.framework/Headers/qarraydata.h
FN:57,_ZN10QArrayData4dataEv
FN:123,_ZN10QArrayData10sharedNullEv
FN:206,_ZN15QTypedArrayDataIcE4dataEv
FN:206,_ZN15QTypedArrayDataItE4dataEv
FN:234,_ZN15QTypedArrayDataItE10deallocateEP10QArrayData
FN:234,_ZN15QTypedArrayDataIcE10deallocateEP10QArrayData
FN:255,_ZN15QTypedArrayDataIcE10sharedNullEv
FN:255,_ZN15QTypedArrayDataItE10sharedNullEv
FNDA:0,_ZN10QArrayData4dataEv
FNDA:0,_ZN10QArrayData10sharedNullEv
FNDA:0,_ZN15QTypedArrayDataItE4dataEv
FNDA:0,_ZN15QTypedArrayDataIcE4dataEv
FNDA:0,_ZN15QTypedArrayDataIcE10deallocateEP10QArrayData
FNDA:0,_ZN15QTypedArrayDataItE10deallocateEP10QArrayData
FNDA:0,_ZN15QTypedArrayDataIcE10sharedNullEv
FNDA:0,_ZN15QTypedArrayDataItE10sharedNullEv
FNF:8
FNH:0
DA:59,0
DA:61,0
DA:123,0
DA:206,0
DA:237,0
DA:238,0
DA:258,0
LF:7
LH:0
end_of_record
SF:/Applications/Developpement/Qt/5.11.0/clang_64/lib/QtCore.framework/Headers/qatomic.h
FN:60,_ZN14QAtomicIntegerIiEC2Ei
FN:162,_ZN10QAtomicIntC1Ei
FN:162,_ZN10QAtomicIntC2Ei
FNDA:0,_ZN14QAtomicIntegerIiEC2Ei
FNDA:0,_ZN10QAtomicIntC1Ei
FNDA:0,_ZN10QAtomicIntC2Ei
FNF:3
FNH:0
DA:60,0
DA:162,0
LF:2
LH:0
end_of_record
SF:/Applications/Developpement/Qt/5.11.0/clang_64/lib/QtCore.framework/Headers/qatomic_cxx11.h
FN:225,_ZN10QAtomicOpsIiE4loadIiEET_RKNSt3__16atomicIS2_EE
FN:263,_ZN10QAtomicOpsIiE3refIiEEbRNSt3__16atomicIT_EE
FN:269,_ZN10QAtomicOpsIiE5derefIiEEbRNSt3__16atomicIT_EE
FNDA:0,_ZN10QAtomicOpsIiE4loadIiEET_RKNSt3__16atomicIS2_EE
FNDA:0,_ZN10QAtomicOpsIiE3refIiEEbRNSt3__16atomicIT_EE
FNDA:0,_ZN10QAtomicOpsIiE5derefIiEEbRNSt3__16atomicIT_EE
FNF:3
FNH:0
DA:227,0
DA:265,0
DA:271,0
LF:3
LH:0
end_of_record
SF:/Applications/Developpement/Qt/5.11.0/clang_64/lib/QtCore.framework/Headers/qbasicatomic.h
FN:91,_ZNK19QBasicAtomicIntegerIiE4loadEv
FN:102,_ZN19QBasicAtomicIntegerIiE3refEv
FN:103,_ZN19QBasicAtomicIntegerIiE5derefEv
FN:209,_ZN19QBasicAtomicIntegerIiEC2Ei
FNDA:0,_ZNK19QBasicAtomicIntegerIiE4loadEv
FNDA:0,_ZN19QBasicAtomicIntegerIiE3refEv
FNDA:0,_ZN19QBasicAtomicIntegerIiE5derefEv
FNDA:0,_ZN19QBasicAtomicIntegerIiEC2Ei
FNF:4
FNH:0
DA:91,0
DA:102,0
DA:103,0
DA:209,0
LF:4
LH:0
end_of_record
SF:/Applications/Developpement/Qt/5.11.0/clang_64/lib/QtCore.framework/Headers/qbytearray.h
FN:76,_Z8qstrnlenPKcj
FN:265,_ZNO10QByteArray7toUpperEv
FN:468,_ZN10QByteArrayC1Ev
FN:468,_ZN10QByteArrayC2Ev
FN:469,_ZN10QByteArrayD2Ev
FN:469,_ZN10QByteArrayD1Ev
FN:470,_ZNK10QByteArray4sizeEv
FN:473,_ZNK10QByteArray2atEi
FN:490,_ZNK10QByteArray4dataEv
FN:492,_ZNK10QByteArray9constDataEv
FN:498,_ZN10QByteArrayC2ERKS_
FN:498,_ZN10QByteArrayC1ERKS_
FN:529,_ZN8QByteRefC1ER10QByteArrayi
FN:529,_ZN8QByteRefC2ER10QByteArrayi
FN:533,_ZNK8QByteRefcvcEv
FN:555,_ZN10QByteArrayixEi
FN:599,_ZNK10QByteArray8containsERKS_
FNDA:0,_Z8qstrnlenPKcj
FNDA:0,_ZNO10QByteArray7toUpperEv
FNDA:0,_ZN10QByteArrayC1Ev
FNDA:0,_ZN10QByteArrayC2Ev
FNDA:0,_ZN10QByteArrayD1Ev
FNDA:0,_ZN10QByteArrayD2Ev
FNDA:0,_ZNK10QByteArray4sizeEv
FNDA:0,_ZNK10QByteArray2atEi
FNDA:0,_ZNK10QByteArray4dataEv
FNDA:0,_ZNK10QByteArray9constDataEv
FNDA:0,_ZN10QByteArrayC1ERKS_
FNDA:0,_ZN10QByteArrayC2ERKS_
FNDA:0,_ZN8QByteRefC1ER10QByteArrayi
FNDA:0,_ZN8QByteRefC2ER10QByteArrayi
FNDA:0,_ZNK8QByteRefcvcEv
FNDA:0,_ZN10QByteArrayixEi
FNDA:0,_ZNK10QByteArray8containsERKS_
FNF:17
FNH:0
DA:78,0
DA:79,0
DA:80,0
DA:81,0
DA:82,0
DA:83,0
DA:266,0
DA:468,0
DA:469,0
DA:471,0
DA:474,0
DA:491,0
DA:493,0
DA:498,0
DA:499,0
DA:530,0
DA:534,0
DA:556,0
DA:600,0
LF:19
LH:0
end_of_record
SF:/Applications/Developpement/Qt/5.11.0/clang_64/lib/QtCore.framework/Headers/qchar.h
FN:53,_ZN11QLatin1CharC2Ec
FN:53,_ZN11QLatin1CharC1Ec
FN:55,_ZNK11QLatin1Char7unicodeEv
FN:88,_ZN5QCharC2E11QLatin1Char
FN:88,_ZN5QCharC1E11QLatin1Char
FNDA:0,_ZN11QLatin1CharC1Ec
FNDA:0,_ZN11QLatin1CharC2Ec
FNDA:0,_ZNK11QLatin1Char7unicodeEv
FNDA:0,_ZN5QCharC1E11QLatin1Char
FNDA:0,_ZN5QCharC2E11QLatin1Char
FNF:5
FNH:0
DA:53,0
DA:55,0
DA:88,0
LF:3
LH:0
end_of_record
SF:/Applications/Developpement/Qt/5.11.0/clang_64/lib/QtCore.framework/Headers/qdebug.h
FN:125,_ZN6QDebug10maybeSpaceEv
FN:145,_ZN6QDebuglsEi
FN:153,_ZN6QDebuglsEPKc
FN:155,_ZN6QDebuglsERK7QString
FN:160,_ZN6QDebuglsERK10QByteArray
FNDA:0,_ZN6QDebug10maybeSpaceEv
FNDA:0,_ZN6QDebuglsEi
FNDA:0,_ZN6QDebuglsEPKc
FNDA:0,_ZN6QDebuglsERK7QString
FNDA:0,_ZN6QDebuglsERK10QByteArray
FNF:5
FNH:0
DA:125,0
DA:145,0
DA:153,0
DA:155,0
DA:160,0
LF:5
LH:0
end_of_record
SF:/Applications/Developpement/Qt/5.11.0/clang_64/lib/QtCore.framework/Headers/qglobal.h
FN:911,_Z5qSwapIPN9QListData4DataEEvRT_S4_
FNDA:0,_Z5qSwapIPN9QListData4DataEEvRT_S4_
FNF:1
FNH:0
DA:915,0
DA:916,0
LF:2
LH:0
end_of_record
SF:/Applications/Developpement/Qt/5.11.0/clang_64/lib/QtCore.framework/Headers/qlist.h
FN:100,_ZN9QListData7disposeEv
FN:114,_ZNK9QListData7isEmptyEv
FN:116,_ZNK9QListData5beginEv
FN:117,_ZNK9QListData3endEv
FN:142,_ZN5QListI7QStringE4Node1tEv
FN:151,_ZN5QListI7QStringEC2Ev
FN:156,_ZN5QListI7QStringEC1EOS1_
FN:156,_ZN5QListI7QStringEC2EOS1_
FN:158,_ZN5QListI7QStringEaSEOS1_
FN:161,_ZN5QListI7QStringE4swapERS1_
FN:172,_ZN5QListI7QStringE6detachEv
FN:195,_ZNK5QListI7QStringE7isEmptyEv
FN:235,_ZN5QListI7QStringE8iteratorC1EPNS1_4NodeE
FN:235,_ZN5QListI7QStringE8iteratorC2EPNS1_4NodeE
FN:239,_ZN5QListI7QStringE8iteratorC1ERKS2_
FN:239,_ZN5QListI7QStringE8iteratorC2ERKS2_
FN:241,_ZNK5QListI7QStringE8iteratordeEv
FN:266,_ZN5QListI7QStringE8iteratormmEv
FN:268,_ZN5QListI7QStringE8iteratorpLEx
FN:287,_ZN5QListI7QStringE14const_iteratorC2EPNS1_4NodeE
FN:287,_ZN5QListI7QStringE14const_iteratorC1EPNS1_4NodeE
FN:322,_ZN5QListI7QStringE5beginEv
FN:325,_ZNK5QListI7QStringE10constBeginEv
FN:326,_ZN5QListI7QStringE3endEv
FN:329,_ZNK5QListI7QStringE8constEndEv
FN:348,_ZN5QListI7QStringE4lastEv
FN:352,_ZN5QListI7QStringE10removeLastEv
FN:412,_ZNK5QListI7QStringE15isValidIteratorERKNS1_8iteratorE
FN:449,_ZN5QListI7QStringE13node_destructEPNS1_4NodeE
FN:456,_ZN5QListI7QStringE9node_copyEPNS1_4NodeES3_S3_
FN:491,_ZN5QListI7QStringE13node_destructEPNS1_4NodeES3_
FN:528,_ZN5QListI7QStringE5eraseENS1_8iteratorE
FN:564,_ZN5QListI7QStringE8takeLastEv
FN:783,_ZN5QListI7QStringE13detach_helperEi
FN:800,_ZN5QListI7QStringE13detach_helperEv
FN:824,_ZN5QListI7QStringED1Ev
FN:824,_ZN5QListI7QStringED2Ev
FN:863,_ZN5QListI7QStringE7deallocEPN9QListData4DataE
FNDA:0,_ZN9QListData7disposeEv
FNDA:0,_ZNK9QListData7isEmptyEv
FNDA:0,_ZNK9QListData5beginEv
FNDA:0,_ZNK9QListData3endEv
FNDA:0,_ZN5QListI7QStringE4Node1tEv
FNDA:0,_ZN5QListI7QStringEC2Ev
FNDA:0,_ZN5QListI7QStringEC1EOS1_
FNDA:0,_ZN5QListI7QStringEC2EOS1_
FNDA:0,_ZN5QListI7QStringEaSEOS1_
FNDA:0,_ZN5QListI7QStringE4swapERS1_
FNDA:0,_ZN5QListI7QStringE6detachEv
FNDA:0,_ZNK5QListI7QStringE7isEmptyEv
FNDA:0,_ZN5QListI7QStringE8iteratorC1EPNS1_4NodeE
FNDA:0,_ZN5QListI7QStringE8iteratorC2EPNS1_4NodeE
FNDA:0,_ZN5QListI7QStringE8iteratorC1ERKS2_
FNDA:0,_ZN5QListI7QStringE8iteratorC2ERKS2_
FNDA:0,_ZNK5QListI7QStringE8iteratordeEv
FNDA:0,_ZN5QListI7QStringE8iteratormmEv
FNDA:0,_ZN5QListI7QStringE8iteratorpLEx
FNDA:0,_ZN5QListI7QStringE14const_iteratorC1EPNS1_4NodeE
FNDA:0,_ZN5QListI7QStringE14const_iteratorC2EPNS1_4NodeE
FNDA:0,_ZN5QListI7QStringE5beginEv
FNDA:0,_ZNK5QListI7QStringE10constBeginEv
FNDA:0,_ZN5QListI7QStringE3endEv
FNDA:0,_ZNK5QListI7QStringE8constEndEv
FNDA:0,_ZN5QListI7QStringE4lastEv
FNDA:0,_ZN5QListI7QStringE10removeLastEv
FNDA:0,_ZNK5QListI7QStringE15isValidIteratorERKNS1_8iteratorE
FNDA:0,_ZN5QListI7QStringE13node_destructEPNS1_4NodeE
FNDA:0,_ZN5QListI7QStringE9node_copyEPNS1_4NodeES3_S3_
FNDA:0,_ZN5QListI7QStringE13node_destructEPNS1_4NodeES3_
FNDA:0,_ZN5QListI7QStringE5eraseENS1_8iteratorE
FNDA:0,_ZN5QListI7QStringE8takeLastEv
FNDA:0,_ZN5QListI7QStringE13detach_helperEi
FNDA:0,_ZN5QListI7QStringE13detach_helperEv
FNDA:0,_ZN5QListI7QStringED2Ev
FNDA:0,_ZN5QListI7QStringED1Ev
FNDA:0,_ZN5QListI7QStringE7deallocEPN9QListData4DataE
FNF:38
FNH:0
DA:100,0
DA:114,0
DA:116,0
DA:117,0
DA:143,0
DA:144,0
DA:151,0
DA:157,0
DA:159,0
DA:161,0
DA:172,0
DA:195,0
DA:235,0
DA:239,0
DA:241,0
DA:266,0
DA:268,0
DA:287,0
DA:322,0
DA:325,0
DA:326,0
DA:329,0
DA:348,0
DA:352,0
DA:414,0
DA:452,0
DA:453,0
DA:458,0
DA:474,0
DA:475,0
DA:476,0
DA:477,0
DA:488,0
DA:496,0
DA:497,0
DA:530,0
DA:531,0
DA:532,0
DA:533,0
DA:534,0
DA:535,0
DA:536,0
DA:537,0
DA:565,0
DA:785,0
DA:786,0
DA:788,0
DA:789,0
DA:790,0
DA:791,0
DA:792,0
DA:793,0
DA:795,0
DA:796,0
DA:797,0
DA:802,0
DA:803,0
DA:825,0
DA:826,0
DA:827,0
DA:828,0
DA:865,0
DA:866,0
DA:867,0
DA:868,0
LF:65
LH:0
end_of_record
SF:/Applications/Developpement/Qt/5.11.0/clang_64/lib/QtCore.framework/Headers/qlogging.h
FN:68,_ZN18QMessageLogContextC2EPKciS1_S1_
FN:68,_ZN18QMessageLogContextC1EPKciS1_S1_
FN:91,_ZN14QMessageLoggerC2EPKciS1_
FN:91,_ZN14QMessageLoggerC1EPKciS1_
FNDA:0,_ZN18QMessageLogContextC1EPKciS1_S1_
FNDA:0,_ZN18QMessageLogContextC2EPKciS1_S1_
FNDA:0,_ZN14QMessageLoggerC1EPKciS1_
FNDA:0,_ZN14QMessageLoggerC2EPKciS1_
FNF:4
FNH:0
DA:69,0
DA:92,0
LF:2
LH:0
end_of_record
SF:/Applications/Developpement/Qt/5.11.0/clang_64/lib/QtCore.framework/Headers/qmetaobject.h
FN:172,_ZN11QMetaMethod10fromSignalIM16BurgerControllerFvvEEES_T_
FNDA:0,_ZN11QMetaMethod10fromSignalIM16BurgerControllerFvvEEES_T_
FNF:1
FNH:0
DA:177,0
DA:178,0
LF:2
LH:0
end_of_record
SF:/Applications/Developpement/Qt/5.11.0/clang_64/lib/QtCore.framework/Headers/qobject.h
FN:228,_ZN7QObject7connectIM14QAbstractStateFvNS1_14QPrivateSignalEEM16BurgerControllerFvvEEEN11QMetaObject10ConnectionEPKN9QtPrivate15FunctionPointerIT_E6ObjectESC_PKNSB_IT0_E6ObjectESH_N2Qt14ConnectionTypeE
FN:228,_ZN7QObject7connectIM20SerialPortControllerFv10QByteArrayEM16BurgerControllerFvS2_EEEN11QMetaObject10ConnectionEPKN9QtPrivate15FunctionPointerIT_E6ObjectESC_PKNSB_IT0_E6ObjectESH_N2Qt14ConnectionTypeE
FN:228,_ZN7QObject7connectIM6QTimerFvNS1_14QPrivateSignalEEM16BurgerControllerFvvEEEN11QMetaObject10ConnectionEPKN9QtPrivate15FunctionPointerIT_E6ObjectESC_PKNSB_IT0_E6ObjectESH_N2Qt14ConnectionTypeE
FN:228,_ZN7QObject7connectIM20SerialPortControllerFvvEM16BurgerControllerFvvEEEN11QMetaObject10ConnectionEPKN9QtPrivate15FunctionPointerIT_E6ObjectESB_PKNSA_IT0_E6ObjectESG_N2Qt14ConnectionTypeE
FN:228,_ZN7QObject7connectIM20SerialPortControllerFvxEM16BurgerControllerFvyEEEN11QMetaObject10ConnectionEPKN9QtPrivate15FunctionPointerIT_E6ObjectESB_PKNSA_IT0_E6ObjectESG_N2Qt14ConnectionTypeE
FN:499,_Z12qobject_castIP20SerialPortControllerET_P7QObject
FNDA:0,_ZN7QObject7connectIM6QTimerFvNS1_14QPrivateSignalEEM16BurgerControllerFvvEEEN11QMetaObject10ConnectionEPKN9QtPrivate15FunctionPointerIT_E6ObjectESC_PKNSB_IT0_E6ObjectESH_N2Qt14ConnectionTypeE
FNDA:0,_ZN7QObject7connectIM14QAbstractStateFvNS1_14QPrivateSignalEEM16BurgerControllerFvvEEEN11QMetaObject10ConnectionEPKN9QtPrivate15FunctionPointerIT_E6ObjectESC_PKNSB_IT0_E6ObjectESH_N2Qt14ConnectionTypeE
FNDA:0,_ZN7QObject7connectIM20SerialPortControllerFvvEM16BurgerControllerFvvEEEN11QMetaObject10ConnectionEPKN9QtPrivate15FunctionPointerIT_E6ObjectESB_PKNSA_IT0_E6ObjectESG_N2Qt14ConnectionTypeE
FNDA:0,_ZN7QObject7connectIM20SerialPortControllerFvxEM16BurgerControllerFvyEEEN11QMetaObject10ConnectionEPKN9QtPrivate15FunctionPointerIT_E6ObjectESB_PKNSA_IT0_E6ObjectESG_N2Qt14ConnectionTypeE
FNDA:0,_ZN7QObject7connectIM20SerialPortControllerFv10QByteArrayEM16BurgerControllerFvS2_EEEN11QMetaObject10ConnectionEPKN9QtPrivate15FunctionPointerIT_E6ObjectESC_PKNSB_IT0_E6ObjectESH_N2Qt14ConnectionTypeE
FNDA:0,_Z12qobject_castIP20SerialPortControllerET_P7QObject
FNF:6
FNH:0
DA:246,0
DA:247,0
DA:248,0
DA:250,0
DA:251,0
DA:252,0
DA:253,0
DA:254,0
DA:255,0
DA:504,0
LF:10
LH:0
end_of_record
SF:/Applications/Developpement/Qt/5.11.0/clang_64/lib/QtCore.framework/Headers/qobject_impl.h
FN:71,_ZN9QtPrivate15ConnectionTypesINS_4ListIJN14QAbstractState14QPrivateSignalEEEELb0EE5typesEv
FN:71,_ZN9QtPrivate15ConnectionTypesINS_4ListIJN6QTimer14QPrivateSignalEEEELb0EE5typesEv
FN:73,_ZN9QtPrivate15ConnectionTypesINS_4ListIJEEELb1EE5typesEv
FN:75,_ZN9QtPrivate15ConnectionTypesINS_4ListIJ10QByteArrayEEELb1EE5typesEv
FN:75,_ZN9QtPrivate15ConnectionTypesINS_4ListIJxEEELb1EE5typesEv
FNDA:0,_ZN9QtPrivate15ConnectionTypesINS_4ListIJN6QTimer14QPrivateSignalEEEELb0EE5typesEv
FNDA:0,_ZN9QtPrivate15ConnectionTypesINS_4ListIJN14QAbstractState14QPrivateSignalEEEELb0EE5typesEv
FNDA:0,_ZN9QtPrivate15ConnectionTypesINS_4ListIJEEELb1EE5typesEv
FNDA:0,_ZN9QtPrivate15ConnectionTypesINS_4ListIJxEEELb1EE5typesEv
FNDA:0,_ZN9QtPrivate15ConnectionTypesINS_4ListIJ10QByteArrayEEELb1EE5typesEv
FNF:5
FNH:0
DA:71,0
DA:73,0
DA:75,0
LF:3
LH:0
end_of_record
SF:/Applications/Developpement/Qt/5.11.0/clang_64/lib/QtCore.framework/Headers/qobjectdefs.h
FN:292,_ZN16QGenericArgumentC1EPKcPKv
FN:292,_ZN16QGenericArgumentC2EPKcPKv
FN:305,_ZN22QGenericReturnArgumentC2EPKcPv
FN:305,_ZN22QGenericReturnArgumentC1EPKcPv
FN:314,_ZN9QArgumentI7QStringEC1EPKcRKS0_
FN:314,_ZN9QArgumentI7QStringEC2EPKcRKS0_
FN:314,_ZN9QArgumentI10QByteArrayEC1EPKcRKS0_
FN:314,_ZN9QArgumentI10QByteArrayEC2EPKcRKS0_
FN:431,_ZN11QMetaObject12invokeMethodEP7QObjectPKcN2Qt14ConnectionTypeE16QGenericArgumentS6_S6_S6_S6_S6_S6_S6_S6_S6_
FNDA:0,_ZN16QGenericArgumentC1EPKcPKv
FNDA:0,_ZN16QGenericArgumentC2EPKcPKv
FNDA:0,_ZN22QGenericReturnArgumentC1EPKcPv
FNDA:0,_ZN22QGenericReturnArgumentC2EPKcPv
FNDA:0,_ZN9QArgumentI7QStringEC1EPKcRKS0_
FNDA:0,_ZN9QArgumentI7QStringEC2EPKcRKS0_
FNDA:0,_ZN9QArgumentI10QByteArrayEC1EPKcRKS0_
FNDA:0,_ZN9QArgumentI10QByteArrayEC2EPKcRKS0_
FNDA:0,_ZN11QMetaObject12invokeMethodEP7QObjectPKcN2Qt14ConnectionTypeE16QGenericArgumentS6_S6_S6_S6_S6_S6_S6_S6_S6_
FNF:9
FNH:0
DA:293,0
DA:306,0
DA:307,0
DA:315,0
DA:316,0
DA:444,0
DA:445,0
LF:7
LH:0
end_of_record
SF:/Applications/Developpement/Qt/5.11.0/clang_64/lib/QtCore.framework/Headers/qobjectdefs_impl.h
FN:88,_ZN9QtPrivate16ApplyReturnValueIvEC2EPv
FN:88,_ZN9QtPrivate16ApplyReturnValueIvEC1EPv
FN:133,_ZN9QtPrivate11FunctorCallINS_11IndexesListIJLi0EEEENS_4ListIJ10QByteArrayEEEvM16BurgerControllerFvS4_EE4callES8_PS6_PPv
FN:133,_ZN9QtPrivate11FunctorCallINS_11IndexesListIJEEENS_4ListIJEEEvM16BurgerControllerFvvEE4callES7_PS5_PPv
FN:133,_ZN9QtPrivate11FunctorCallINS_11IndexesListIJLi0EEEENS_4ListIJxEEEvM16BurgerControllerFvyEE4callES7_PS5_PPv
FN:166,_ZN9QtPrivate15FunctionPointerIM16BurgerControllerFvvEE4callINS_4ListIJEEEvEEvS3_PS1_PPv
FN:166,_ZN9QtPrivate15FunctionPointerIM16BurgerControllerFv10QByteArrayEE4callINS_4ListIJS2_EEEvEEvS4_PS1_PPv
FN:166,_ZN9QtPrivate15FunctionPointerIM16BurgerControllerFvyEE4callINS_4ListIJxEEEvEEvS3_PS1_PPv
FN:369,_ZN9QtPrivate15QSlotObjectBaseC2EPFviPS0_P7QObjectPPvPbE
FN:378,_ZN9QtPrivate15QSlotObjectBaseD2Ev
FN:385,_ZN9QtPrivate11QSlotObjectIM16BurgerControllerFvvENS_4ListIJEEEvED2Ev
FN:385,_ZN9QtPrivate11QSlotObjectIM16BurgerControllerFvyENS_4ListIJxEEEvED2Ev
FN:385,_ZN9QtPrivate11QSlotObjectIM16BurgerControllerFvyENS_4ListIJxEEEvED1Ev
FN:385,_ZN9QtPrivate11QSlotObjectIM16BurgerControllerFv10QByteArrayENS_4ListIJS2_EEEvED2Ev
FN:385,_ZN9QtPrivate11QSlotObjectIM16BurgerControllerFv10QByteArrayENS_4ListIJS2_EEEvED1Ev
FN:385,_ZN9QtPrivate11QSlotObjectIM16BurgerControllerFvvENS_4ListIJEEEvED1Ev
FN:389,_ZN9QtPrivate11QSlotObjectIM16BurgerControllerFv10QByteArrayENS_4ListIJS2_EEEvE4implEiPNS_15QSlotObjectBaseEP7QObjectPPvPb
FN:389,_ZN9QtPrivate11QSlotObjectIM16BurgerControllerFvyENS_4ListIJxEEEvE4implEiPNS_15QSlotObjectBaseEP7QObjectPPvPb
FN:389,_ZN9QtPrivate11QSlotObjectIM16BurgerControllerFvvENS_4ListIJEEEvE4implEiPNS_15QSlotObjectBaseEP7QObjectPPvPb
FN:405,_ZN9QtPrivate11QSlotObjectIM16BurgerControllerFvvENS_4ListIJEEEvEC1ES3_
FN:405,_ZN9QtPrivate11QSlotObjectIM16BurgerControllerFv10QByteArrayENS_4ListIJS2_EEEvEC1ES4_
FN:405,_ZN9QtPrivate11QSlotObjectIM16BurgerControllerFvvENS_4ListIJEEEvEC2ES3_
FN:405,_ZN9QtPrivate11QSlotObjectIM16BurgerControllerFvyENS_4ListIJxEEEvEC1ES3_
FN:405,_ZN9QtPrivate11QSlotObjectIM16BurgerControllerFvyENS_4ListIJxEEEvEC2ES3_
FN:405,_ZN9QtPrivate11QSlotObjectIM16BurgerControllerFv10QByteArrayENS_4ListIJS2_EEEvEC2ES4_
FNDA:0,_ZN9QtPrivate16ApplyReturnValueIvEC1EPv
FNDA:0,_ZN9QtPrivate16ApplyReturnValueIvEC2EPv
FNDA:0,_ZN9QtPrivate11FunctorCallINS_11IndexesListIJEEENS_4ListIJEEEvM16BurgerControllerFvvEE4callES7_PS5_PPv
FNDA:0,_ZN9QtPrivate11FunctorCallINS_11IndexesListIJLi0EEEENS_4ListIJxEEEvM16BurgerControllerFvyEE4callES7_PS5_PPv
FNDA:0,_ZN9QtPrivate11FunctorCallINS_11IndexesListIJLi0EEEENS_4ListIJ10QByteArrayEEEvM16BurgerControllerFvS4_EE4callES8_PS6_PPv
FNDA:0,_ZN9QtPrivate15FunctionPointerIM16BurgerControllerFvvEE4callINS_4ListIJEEEvEEvS3_PS1_PPv
FNDA:0,_ZN9QtPrivate15FunctionPointerIM16BurgerControllerFvyEE4callINS_4ListIJxEEEvEEvS3_PS1_PPv
FNDA:0,_ZN9QtPrivate15FunctionPointerIM16BurgerControllerFv10QByteArrayEE4callINS_4ListIJS2_EEEvEEvS4_PS1_PPv
FNDA:0,_ZN9QtPrivate15QSlotObjectBaseC2EPFviPS0_P7QObjectPPvPbE
FNDA:0,_ZN9QtPrivate15QSlotObjectBaseD2Ev
FNDA:0,_ZN9QtPrivate11QSlotObjectIM16BurgerControllerFvvENS_4ListIJEEEvED1Ev
FNDA:0,_ZN9QtPrivate11QSlotObjectIM16BurgerControllerFvvENS_4ListIJEEEvED2Ev
FNDA:0,_ZN9QtPrivate11QSlotObjectIM16BurgerControllerFvyENS_4ListIJxEEEvED1Ev
FNDA:0,_ZN9QtPrivate11QSlotObjectIM16BurgerControllerFvyENS_4ListIJxEEEvED2Ev
FNDA:0,_ZN9QtPrivate11QSlotObjectIM16BurgerControllerFv10QByteArrayENS_4ListIJS2_EEEvED1Ev
FNDA:0,_ZN9QtPrivate11QSlotObjectIM16BurgerControllerFv10QByteArrayENS_4ListIJS2_EEEvED2Ev
FNDA:0,_ZN9QtPrivate11QSlotObjectIM16BurgerControllerFvvENS_4ListIJEEEvE4implEiPNS_15QSlotObjectBaseEP7QObjectPPvPb
FNDA:0,_ZN9QtPrivate11QSlotObjectIM16BurgerControllerFvyENS_4ListIJxEEEvE4implEiPNS_15QSlotObjectBaseEP7QObjectPPvPb
FNDA:0,_ZN9QtPrivate11QSlotObjectIM16BurgerControllerFv10QByteArrayENS_4ListIJS2_EEEvE4implEiPNS_15QSlotObjectBaseEP7QObjectPPvPb
FNDA:0,_ZN9QtPrivate11QSlotObjectIM16BurgerControllerFvvENS_4ListIJEEEvEC1ES3_
FNDA:0,_ZN9QtPrivate11QSlotObjectIM16BurgerControllerFvvENS_4ListIJEEEvEC2ES3_
FNDA:0,_ZN9QtPrivate11QSlotObjectIM16BurgerControllerFvyENS_4ListIJxEEEvEC1ES3_
FNDA:0,_ZN9QtPrivate11QSlotObjectIM16BurgerControllerFvyENS_4ListIJxEEEvEC2ES3_
FNDA:0,_ZN9QtPrivate11QSlotObjectIM16BurgerControllerFv10QByteArrayENS_4ListIJS2_EEEvEC1ES4_
FNDA:0,_ZN9QtPrivate11QSlotObjectIM16BurgerControllerFv10QByteArrayENS_4ListIJS2_EEEvEC2ES4_
FNF:25
FNH:0
DA:88,0
DA:134,0
DA:135,0
DA:167,0
DA:168,0
DA:369,0
DA:378,0
DA:385,0
DA:391,0
DA:393,0
DA:394,0
DA:396,0
DA:397,0
DA:399,0
DA:400,0
DA:402,0
DA:403,0
DA:405,0
LF:18
LH:0
end_of_record
SF:/Applications/Developpement/Qt/5.11.0/clang_64/lib/QtCore.framework/Headers/qrefcount.h
FN:54,_ZN9QtPrivate8RefCount3refEv
FN:65,_ZN9QtPrivate8RefCount5derefEv
FN:99,_ZNK9QtPrivate8RefCount8isSharedEv
FNDA:0,_ZN9QtPrivate8RefCount3refEv
FNDA:0,_ZN9QtPrivate8RefCount5derefEv
FNDA:0,_ZNK9QtPrivate8RefCount8isSharedEv
FNF:3
FNH:0
DA:55,0
DA:57,0
DA:58,0
DA:60,0
DA:61,0
DA:62,0
DA:63,0
DA:66,0
DA:68,0
DA:69,0
DA:71,0
DA:72,0
DA:73,0
DA:74,0
DA:101,0
DA:102,0
LF:16
LH:0
end_of_record
SF:/Applications/Developpement/Qt/5.11.0/clang_64/lib/QtCore.framework/Headers/qstate.h
FN:89,_ZN6QState13addTransitionIM16BurgerControllerFvvEEEP17QSignalTransitionPKN9QtPrivate15FunctionPointerIT_E6ObjectES8_P14QAbstractState
FNDA:0,_ZN6QState13addTransitionIM16BurgerControllerFvvEEEP17QSignalTransitionPKN9QtPrivate15FunctionPointerIT_E6ObjectES8_P14QAbstractState
FNF:1
FNH:0
DA:92,0
DA:93,0
DA:94,0
LF:3
LH:0
end_of_record
SF:/Applications/Developpement/Qt/5.11.0/clang_64/lib/QtCore.framework/Headers/qstring.h
FN:234,_ZN7QStringC2EOS_
FN:234,_ZN7QStringC1EOS_
FN:437,_ZNO7QString7trimmedEv
FN:562,_ZN7QString10fromLatin1EPKci
FN:567,_ZN7QString8fromUtf8EPKci
FN:575,_ZN7QString10fromLatin1ERK10QByteArray
FN:577,_ZN7QString8fromUtf8ERK10QByteArray
FN:693,_ZN7QStringC2EPKc
FN:693,_ZN7QStringC1EPKc
FN:696,_ZN7QStringC1ERK10QByteArray
FN:696,_ZN7QStringC2ERK10QByteArray
FN:823,_ZN7QStringC1E14QStringDataPtr
FN:823,_ZN7QStringC2E14QStringDataPtr
FN:928,_ZNK7QString6lengthEv
FN:936,_ZNK7QString7isEmptyEv
FN:944,_ZNK7QString9constDataEv
FN:952,_ZN7QStringC1ERKS_
FN:952,_ZN7QStringC2ERKS_
FN:1129,_ZN7QStringC2Ev
FN:1129,_ZN7QStringC1Ev
FN:1130,_ZN7QStringD1Ev
FN:1130,_ZN7QStringD2Ev
FNDA:0,_ZN7QStringC1EOS_
FNDA:0,_ZN7QStringC2EOS_
FNDA:0,_ZNO7QString7trimmedEv
FNDA:0,_ZN7QString10fromLatin1EPKci
FNDA:0,_ZN7QString8fromUtf8EPKci
FNDA:0,_ZN7QString10fromLatin1ERK10QByteArray
FNDA:0,_ZN7QString8fromUtf8ERK10QByteArray
FNDA:0,_ZN7QStringC1EPKc
FNDA:0,_ZN7QStringC2EPKc
FNDA:0,_ZN7QStringC1ERK10QByteArray
FNDA:0,_ZN7QStringC2ERK10QByteArray
FNDA:0,_ZN7QStringC1E14QStringDataPtr
FNDA:0,_ZN7QStringC2E14QStringDataPtr
FNDA:0,_ZNK7QString6lengthEv
FNDA:0,_ZNK7QString7isEmptyEv
FNDA:0,_ZNK7QString9constDataEv
FNDA:0,_ZN7QStringC1ERKS_
FNDA:0,_ZN7QStringC2ERKS_
FNDA:0,_ZN7QStringC1Ev
FNDA:0,_ZN7QStringC2Ev
FNDA:0,_ZN7QStringD1Ev
FNDA:0,_ZN7QStringD2Ev
FNF:22
FNH:0
DA:234,0
DA:438,0
DA:564,0
DA:565,0
DA:569,0
DA:576,0
DA:578,0
DA:694,0
DA:695,0
DA:697,0
DA:698,0
DA:823,0
DA:929,0
DA:937,0
DA:945,0
DA:952,0
DA:953,0
DA:1129,0
DA:1130,0
LF:19
LH:0
end_of_record
SF:/Applications/Developpement/Qt/5.11.0/clang_64/lib/QtCore.framework/Headers/qstringlist.h
FN:69,_ZN19QListSpecialMethodsI7QStringED2Ev
FN:99,_ZN11QStringListD1Ev
FN:99,_ZN11QStringListaSEOS_
FN:99,_ZN11QStringListD2Ev
FN:103,_ZN11QStringListC2Ev
FN:103,_ZN11QStringListC1Ev
FNDA:0,_ZN19QListSpecialMethodsI7QStringED2Ev
FNDA:0,_ZN11QStringListD1Ev
FNDA:0,_ZN11QStringListaSEOS_
FNDA:0,_ZN11QStringListD2Ev
FNDA:0,_ZN11QStringListC1Ev
FNDA:0,_ZN11QStringListC2Ev
FNF:6
FNH:0
DA:69,0
DA:99,0
DA:103,0
LF:3
LH:0
end_of_record
SF:/Applications/Developpement/Qt/5.11.0/clang_64/lib/QtCore.framework/Headers/qtimer.h
FN:232,_ZN6QTimer13setSingleShotEb
FNDA:0,_ZN6QTimer13setSingleShotEb
FNF:1
FNH:0
DA:232,0
LF:1
LH:0
end_of_record
SF:/Applications/Developpement/Qt/5.11.0/clang_64/lib/QtQml.framework/Headers/qqmldebug.h
FN:79,__cxx_global_var_init
FNDA:1,__cxx_global_var_init
FNF:1
FNH:1
DA:79,2
LF:1
LH:1
end_of_record
SF:/Library/Developer/CommandLineTools/usr/include/c++/v1/atomic
FN:927,_ZNKSt3__113__atomic_baseIiLb0EE4loadENS_12memory_orderE
FN:985,_ZNSt3__113__atomic_baseIiLb0EEC2Ei
FN:1013,_ZNSt3__113__atomic_baseIiLb1EEC2Ei
FN:1019,_ZNSt3__113__atomic_baseIiLb1EE9fetch_addEiNS_12memory_orderE
FN:1025,_ZNSt3__113__atomic_baseIiLb1EE9fetch_subEiNS_12memory_orderE
FN:1057,_ZNSt3__113__atomic_baseIiLb1EEppEv
FN:1061,_ZNSt3__113__atomic_baseIiLb1EEmmEv
FN:1094,_ZNSt3__16atomicIiEC2Ei
FN:1094,_ZNSt3__16atomicIiEC1Ei
FNDA:0,_ZNKSt3__113__atomic_baseIiLb0EE4loadENS_12memory_orderE
FNDA:0,_ZNSt3__113__atomic_baseIiLb0EEC2Ei
FNDA:0,_ZNSt3__113__atomic_baseIiLb1EEC2Ei
FNDA:0,_ZNSt3__113__atomic_baseIiLb1EE9fetch_addEiNS_12memory_orderE
FNDA:0,_ZNSt3__113__atomic_baseIiLb1EE9fetch_subEiNS_12memory_orderE
FNDA:0,_ZNSt3__113__atomic_baseIiLb1EEppEv
FNDA:0,_ZNSt3__113__atomic_baseIiLb1EEmmEv
FNDA:0,_ZNSt3__16atomicIiEC1Ei
FNDA:0,_ZNSt3__16atomicIiEC2Ei
FNF:9
FNH:0
DA:929,0
DA:985,0
DA:1013,0
DA:1020,0
DA:1026,0
DA:1057,0
DA:1061,0
DA:1094,0
LF:8
LH:0
end_of_record
SF:/Library/Developer/CommandLineTools/usr/include/c++/v1/type_traits
FN:2290,_ZNSt3__14moveIRPN9QListData4DataEEEONS_16remove_referenceIT_E4typeEOS6_
FN:2290,_ZNSt3__14moveIR5QListI7QStringEEEONS_16remove_referenceIT_E4typeEOS6_
FN:2290,_ZNSt3__14moveIR7QStringEEONS_16remove_referenceIT_E4typeEOS4_
FN:4589,_ZNSt3__14swapIPN9QListData4DataEEENS_9enable_ifIXaasr21is_move_constructibleIT_EE5valuesr18is_move_assignableIS5_EE5valueEvE4typeERS5_S8_
FNDA:0,_ZNSt3__14moveIR5QListI7QStringEEEONS_16remove_referenceIT_E4typeEOS6_
FNDA:0,_ZNSt3__14moveIRPN9QListData4DataEEEONS_16remove_referenceIT_E4typeEOS6_
FNDA:0,_ZNSt3__14moveIR7QStringEEONS_16remove_referenceIT_E4typeEOS4_
FNDA:0,_ZNSt3__14swapIPN9QListData4DataEEENS_9enable_ifIXaasr21is_move_constructibleIT_EE5valuesr18is_move_assignableIS5_EE5valueEvE4typeERS5_S8_
FNF:4
FNH:0
DA:2293,0
DA:4592,0
DA:4593,0
DA:4594,0
DA:4595,0
LF:5
LH:0
end_of_record
SF:/Users/tristan/Documents/Sources/BurgerQuiz/controllers/BurgerController.cpp
FN:8,_ZN16BurgerControllerC1EP7QObject
FN:8,_ZN16BurgerControllerC2EP7QObject
FN:17,_ZN16BurgerControllerD1Ev
FN:17,_ZN16BurgerControllerD0Ev
FN:17,_ZN16BurgerControllerD2Ev
FN:29,_ZN16BurgerController22initializeStateMachineEv
FN:60,_ZN16BurgerController10findBurgerEv
FN:80,_ZN16BurgerController11tryNextPortEv
FN:93,_ZN16BurgerController12onPortOpenedEv
FN:103,_ZN16BurgerController15onPortNotOpenedEv
FN:109,_ZN16BurgerController13onDataWrittenEy
FN:114,_ZN16BurgerController14onDataReceivedE10QByteArray
FN:162,_ZN16BurgerController18onStateInitializedEv
FN:167,_ZN16BurgerController16onEtatPortOpenedEv
FN:189,_ZN16BurgerController14onEtatPingSentEv
FN:195,_ZN16BurgerController13onPingTimeoutEv
FN:203,_ZN16BurgerController18onEtatPongReceivedEv
FN:212,_ZN16BurgerController10onEtatPretEv
FN:217,_ZN16BurgerController19onEtatButtonPressedEv
FN:222,_ZN16BurgerController15onEtatDesactiveEv
FN:228,_ZN16BurgerController17onEtatSelectionneEv
FN:235,_ZN16BurgerController12onEtatErreurEv
FN:240,_ZN16BurgerController13startBlinkingEv
FN:248,_ZN16BurgerController12stopBlinkingEv
FNDA:0,_ZN16BurgerControllerC2EP7QObject
FNDA:0,_ZN16BurgerControllerC1EP7QObject
FNDA:0,_ZN16BurgerControllerD2Ev
FNDA:0,_ZN16BurgerControllerD1Ev
FNDA:0,_ZN16BurgerControllerD0Ev
FNDA:0,_ZN16BurgerController22initializeStateMachineEv
FNDA:0,_ZN16BurgerController10findBurgerEv
FNDA:0,_ZN16BurgerController11tryNextPortEv
FNDA:0,_ZN16BurgerController12onPortOpenedEv
FNDA:0,_ZN16BurgerController15onPortNotOpenedEv
FNDA:0,_ZN16BurgerController13onDataWrittenEy
FNDA:0,_ZN16BurgerController14onDataReceivedE10QByteArray
FNDA:0,_ZN16BurgerController18onStateInitializedEv
FNDA:0,_ZN16BurgerController16onEtatPortOpenedEv
FNDA:0,_ZN16BurgerController14onEtatPingSentEv
FNDA:0,_ZN16BurgerController13onPingTimeoutEv
FNDA:0,_ZN16BurgerController18onEtatPongReceivedEv
FNDA:0,_ZN16BurgerController10onEtatPretEv
FNDA:0,_ZN16BurgerController19onEtatButtonPressedEv
FNDA:0,_ZN16BurgerController15onEtatDesactiveEv
FNDA:0,_ZN16BurgerController17onEtatSelectionneEv
FNDA:0,_ZN16BurgerController12onEtatErreurEv
FNDA:0,_ZN16BurgerController13startBlinkingEv
FNDA:0,_ZN16BurgerController12stopBlinkingEv
FNF:24
FNH:0
DA:8,0
DA:9,0
DA:10,0
DA:11,0
DA:12,0
DA:15,0
DA:18,0
DA:19,0
DA:20,0
DA:21,0
DA:22,0
DA:23,0
DA:24,0
DA:25,0
DA:26,0
DA:27,0
DA:31,0
DA:32,0
DA:33,0
DA:34,0
DA:35,0
DA:36,0
DA:37,0
DA:38,0
DA:39,0
DA:40,0
DA:42,0
DA:43,0
DA:44,0
DA:45,0
DA:46,0
DA:48,0
DA:49,0
DA:50,0
DA:51,0
DA:52,0
DA:53,0
DA:54,0
DA:55,0
DA:56,0
DA:57,0
DA:58,0
DA:62,0
DA:63,0
DA:64,0
DA:65,0
DA:66,0
DA:67,0
DA:68,0
DA:70,0
DA:71,0
DA:72,0
DA:74,0
DA:76,0
DA:77,0
DA:78,0
DA:81,0
DA:82,0
DA:83,0
DA:86,0
DA:87,0
DA:89,0
DA:90,0
DA:91,0
DA:95,0
DA:96,0
DA:97,0
DA:100,0
DA:101,0
DA:105,0
DA:106,0
DA:107,0
DA:111,0
DA:112,0
DA:122,0
DA:125,0
DA:126,0
DA:127,0
DA:128,0
DA:129,0
DA:130,0
DA:131,0
DA:133,0
DA:134,0
DA:135,0
DA:138,0
DA:140,0
DA:141,0
DA:143,0
DA:147,0
DA:148,0
DA:149,0
DA:152,0
DA:153,0
DA:154,0
DA:155,0
DA:156,0
DA:157,0
DA:159,0
DA:160,0
DA:164,0
DA:165,0
DA:169,0
DA:171,0
DA:172,0
DA:174,0
DA:175,0
DA:177,0
DA:178,0
DA:179,0
DA:183,0
DA:185,0
DA:186,0
DA:187,0
DA:191,0
DA:192,0
DA:193,0
DA:197,0
DA:198,0
DA:199,0
DA:200,0
DA:201,0
DA:205,0
DA:207,0
DA:208,0
DA:209,0
DA:210,0
DA:214,0
DA:215,0
DA:219,0
DA:220,0
DA:224,0
DA:225,0
DA:226,0
DA:230,0
DA:231,0
DA:232,0
DA:233,0
DA:237,0
DA:238,0
DA:242,0
DA:243,0
DA:245,0
DA:246,0
DA:250,0
DA:251,0
DA:252,0
DA:268,0
DA:270,0
LF:149
LH:0
end_of_record
SF:/Users/tristan/Documents/Sources/BurgerQuiz/controllers/BurgerController.h
FN:86,_ZN16BurgerController12debugMessageE7QString
FNDA:0,_ZN16BurgerController12debugMessageE7QString
FNF:1
FNH:0
DA:87,0
DA:88,0
LF:2
LH:0
end_of_record
SF:/Users/tristan/Documents/Sources/BurgerQuiz/controllers/SerialPortController.h
FN:34,_ZNK20SerialPortController8portNameEv
FN:42,_ZN20SerialPortController8openPortE7QString
FN:53,_ZN20SerialPortController15writeDataOnPortE10QByteArray
FNDA:0,_ZNK20SerialPortController8portNameEv
FNDA:0,_ZN20SerialPortController8openPortE7QString
FNDA:0,_ZN20SerialPortController15writeDataOnPortE10QByteArray
FNF:3
FNH:0
DA:34,0
DA:43,0
DA:44,0
DA:54,0
DA:55,0
LF:5
LH:0
end_of_record
SF:/Users/tristan/Documents/Sources/BurgerQuiz/factories/MessageFactory.hpp
FN:16,_ZN14MessageFactory13messageHeaderEv
FN:26,_ZN14MessageFactory18messageTerminationEv
FN:38,_ZN14MessageFactory12getCommandIdENS_7MessageE
FN:47,_ZN14MessageFactory15makePingMessageEv
FN:77,_ZN14MessageFactory14makeLedMessageEN6Burger8LedStateE
FN:104,_ZN14MessageFactory14isMessageValidER10QByteArray
FN:131,_ZN14MessageFactory19messageTypeFromDataER10QByteArray
FNDA:0,_ZN14MessageFactory13messageHeaderEv
FNDA:0,_ZN14MessageFactory18messageTerminationEv
FNDA:0,_ZN14MessageFactory12getCommandIdENS_7MessageE
FNDA:0,_ZN14MessageFactory15makePingMessageEv
FNDA:0,_ZN14MessageFactory14makeLedMessageEN6Burger8LedStateE
FNDA:0,_ZN14MessageFactory14isMessageValidER10QByteArray
FNDA:0,_ZN14MessageFactory19messageTypeFromDataER10QByteArray
FNF:7
FNH:0
DA:18,0
DA:27,0
DA:40,0
DA:49,0
DA:50,0
DA:51,0
DA:52,0
DA:53,0
DA:55,0
DA:56,0
DA:79,0
DA:80,0
DA:81,0
DA:82,0
DA:83,0
DA:84,0
DA:86,0
DA:87,0
DA:106,0
DA:107,0
DA:108,0
DA:111,0
DA:112,0
DA:113,0
DA:116,0
DA:117,0
DA:118,0
DA:121,0
DA:122,0
DA:123,0
DA:128,0
DA:129,0
DA:133,0
DA:134,0
DA:135,0
DA:136,0
DA:137,0
DA:138,0
DA:140,0
DA:141,0
DA:144,0
DA:145,0
LF:42
LH:0
end_of_record
SF:/Users/tristan/Documents/Sources/BurgerQuiz/helpers/DebugHelper.hpp
FN:16,_ZN11DebugHelper17byteArrayToStringE10QByteArray
FN:23,_ZN11DebugHelper12teamToStringEN6Burger4TeamE
FNDA:0,_ZN11DebugHelper17byteArrayToStringE10QByteArray
FNDA:0,_ZN11DebugHelper12teamToStringEN6Burger4TeamE
FNF:2
FNH:0
DA:17,0
DA:18,0
DA:24,0
DA:25,0
DA:26,0
DA:27,0
DA:30,0
DA:31,0
LF:8
LH:0
end_of_record
TN:
SF:/Applications/Developpement/Qt/5.11.0/clang_64/lib/QtCore.framework/Headers/qarraydata.h
FN:57,_ZN10QArrayData4dataEv
FN:206,_ZN15QTypedArrayDataItE4dataEv
FN:234,_ZN15QTypedArrayDataItE10deallocateEP10QArrayData
FNDA:0,_ZN10QArrayData4dataEv
FNDA:0,_ZN15QTypedArrayDataItE4dataEv
FNDA:0,_ZN15QTypedArrayDataItE10deallocateEP10QArrayData
FNF:3
FNH:0
DA:59,0
DA:61,0
DA:206,0
DA:237,0
DA:238,0
LF:5
LH:0
end_of_record
SF:/Applications/Developpement/Qt/5.11.0/clang_64/lib/QtCore.framework/Headers/qatomic.h
FN:60,_ZN14QAtomicIntegerIiEC2Ei
FN:162,_ZN10QAtomicIntC2Ei
FN:162,_ZN10QAtomicIntC1Ei
FNDA:0,_ZN14QAtomicIntegerIiEC2Ei
FNDA:0,_ZN10QAtomicIntC1Ei
FNDA:0,_ZN10QAtomicIntC2Ei
FNF:3
FNH:0
DA:60,0
DA:162,0
LF:2
LH:0
end_of_record
SF:/Applications/Developpement/Qt/5.11.0/clang_64/lib/QtCore.framework/Headers/qatomic_cxx11.h
FN:225,_ZN10QAtomicOpsIiE4loadIiEET_RKNSt3__16atomicIS2_EE
FN:263,_ZN10QAtomicOpsIiE3refIiEEbRNSt3__16atomicIT_EE
FN:269,_ZN10QAtomicOpsIiE5derefIiEEbRNSt3__16atomicIT_EE
FNDA:0,_ZN10QAtomicOpsIiE4loadIiEET_RKNSt3__16atomicIS2_EE
FNDA:0,_ZN10QAtomicOpsIiE3refIiEEbRNSt3__16atomicIT_EE
FNDA:0,_ZN10QAtomicOpsIiE5derefIiEEbRNSt3__16atomicIT_EE
FNF:3
FNH:0
DA:227,0
DA:265,0
DA:271,0
LF:3
LH:0
end_of_record
SF:/Applications/Developpement/Qt/5.11.0/clang_64/lib/QtCore.framework/Headers/qbasicatomic.h
FN:91,_ZNK19QBasicAtomicIntegerIiE4loadEv
FN:102,_ZN19QBasicAtomicIntegerIiE3refEv
FN:103,_ZN19QBasicAtomicIntegerIiE5derefEv
FN:209,_ZN19QBasicAtomicIntegerIiEC2Ei
FNDA:0,_ZNK19QBasicAtomicIntegerIiE4loadEv
FNDA:0,_ZN19QBasicAtomicIntegerIiE3refEv
FNDA:0,_ZN19QBasicAtomicIntegerIiE5derefEv
FNDA:0,_ZN19QBasicAtomicIntegerIiEC2Ei
FNF:4
FNH:0
DA:91,0
DA:102,0
DA:103,0
DA:209,0
LF:4
LH:0
end_of_record
SF:/Applications/Developpement/Qt/5.11.0/clang_64/lib/QtCore.framework/Headers/qdebug.h
FN:125,_ZN6QDebug10maybeSpaceEv
FN:153,_ZN6QDebuglsEPKc
FN:155,_ZN6QDebuglsERK7QString
FNDA:0,_ZN6QDebug10maybeSpaceEv
FNDA:0,_ZN6QDebuglsEPKc
FNDA:0,_ZN6QDebuglsERK7QString
FNF:3
FNH:0
DA:125,0
DA:153,0
DA:155,0
LF:3
LH:0
end_of_record
SF:/Applications/Developpement/Qt/5.11.0/clang_64/lib/QtCore.framework/Headers/qlogging.h
FN:68,_ZN18QMessageLogContextC2EPKciS1_S1_
FN:68,_ZN18QMessageLogContextC1EPKciS1_S1_
FN:91,_ZN14QMessageLoggerC2EPKciS1_
FN:91,_ZN14QMessageLoggerC1EPKciS1_
FNDA:0,_ZN18QMessageLogContextC1EPKciS1_S1_
FNDA:0,_ZN18QMessageLogContextC2EPKciS1_S1_
FNDA:0,_ZN14QMessageLoggerC1EPKciS1_
FNDA:0,_ZN14QMessageLoggerC2EPKciS1_
FNF:4
FNH:0
DA:69,0
DA:92,0
LF:2
LH:0
end_of_record
SF:/Applications/Developpement/Qt/5.11.0/clang_64/lib/QtCore.framework/Headers/qmutex.h
FN:199,_ZN12QMutexLockerC2EP11QBasicMutex
FN:199,_ZN12QMutexLockerC1EP11QBasicMutex
FN:213,_ZN12QMutexLockerD2Ev
FN:213,_ZN12QMutexLockerD1Ev
FN:215,_ZN12QMutexLocker6unlockEv
FN:238,_ZNK12QMutexLocker5mutexEv
FNDA:0,_ZN12QMutexLockerC1EP11QBasicMutex
FNDA:0,_ZN12QMutexLockerC2EP11QBasicMutex
FNDA:0,_ZN12QMutexLockerD1Ev
FNDA:0,_ZN12QMutexLockerD2Ev
FNDA:0,_ZN12QMutexLocker6unlockEv
FNDA:0,_ZNK12QMutexLocker5mutexEv
FNF:6
FNH:0
DA:200,0
DA:201,0
DA:203,0
DA:204,0
DA:206,0
DA:207,0
DA:208,0
DA:209,0
DA:213,0
DA:217,0
DA:218,0
DA:219,0
DA:220,0
DA:221,0
DA:240,0
LF:15
LH:0
end_of_record
SF:/Applications/Developpement/Qt/5.11.0/clang_64/lib/QtCore.framework/Headers/qobject.h
FN:228,_ZN7QObject7connectIM16BurgerControllerFvvEM14GameControllerFvvEEEN11QMetaObject10ConnectionEPKN9QtPrivate15FunctionPointerIT_E6ObjectESB_PKNSA_IT0_E6ObjectESG_N2Qt14ConnectionTypeE
FN:228,_ZN7QObject7connectIM14GameControllerFvvES3_EEN11QMetaObject10ConnectionEPKN9QtPrivate15FunctionPointerIT_E6ObjectES8_PKNS7_IT0_E6ObjectESD_N2Qt14ConnectionTypeE
FN:408,_ZNK7QObject6parentEv
FN:499,_Z12qobject_castIP16BurgerControllerET_P7QObject
FNDA:0,_ZN7QObject7connectIM16BurgerControllerFvvEM14GameControllerFvvEEEN11QMetaObject10ConnectionEPKN9QtPrivate15FunctionPointerIT_E6ObjectESB_PKNSA_IT0_E6ObjectESG_N2Qt14ConnectionTypeE
FNDA:0,_ZN7QObject7connectIM14GameControllerFvvES3_EEN11QMetaObject10ConnectionEPKN9QtPrivate15FunctionPointerIT_E6ObjectES8_PKNS7_IT0_E6ObjectESD_N2Qt14ConnectionTypeE
FNDA:0,_ZNK7QObject6parentEv
FNDA:0,_Z12qobject_castIP16BurgerControllerET_P7QObject
FNF:4
FNH:0
DA:246,0
DA:247,0
DA:248,0
DA:250,0
DA:251,0
DA:252,0
DA:253,0
DA:254,0
DA:255,0
DA:408,0
DA:504,0
LF:11
LH:0
end_of_record
SF:/Applications/Developpement/Qt/5.11.0/clang_64/lib/QtCore.framework/Headers/qobject_impl.h
FN:73,_ZN9QtPrivate15ConnectionTypesINS_4ListIJEEELb1EE5typesEv
FNDA:0,_ZN9QtPrivate15ConnectionTypesINS_4ListIJEEELb1EE5typesEv
FNF:1
FNH:0
DA:73,0
LF:1
LH:0
end_of_record
SF:/Applications/Developpement/Qt/5.11.0/clang_64/lib/QtCore.framework/Headers/qobjectdefs_impl.h
FN:88,_ZN9QtPrivate16ApplyReturnValueIvEC2EPv
FN:88,_ZN9QtPrivate16ApplyReturnValueIvEC1EPv
FN:133,_ZN9QtPrivate11FunctorCallINS_11IndexesListIJEEENS_4ListIJEEEvM14GameControllerFvvEE4callES7_PS5_PPv
FN:166,_ZN9QtPrivate15FunctionPointerIM14GameControllerFvvEE4callINS_4ListIJEEEvEEvS3_PS1_PPv
FN:369,_ZN9QtPrivate15QSlotObjectBaseC2EPFviPS0_P7QObjectPPvPbE
FN:378,_ZN9QtPrivate15QSlotObjectBaseD2Ev
FN:385,_ZN9QtPrivate11QSlotObjectIM14GameControllerFvvENS_4ListIJEEEvED1Ev
FN:385,_ZN9QtPrivate11QSlotObjectIM14GameControllerFvvENS_4ListIJEEEvED2Ev
FN:389,_ZN9QtPrivate11QSlotObjectIM14GameControllerFvvENS_4ListIJEEEvE4implEiPNS_15QSlotObjectBaseEP7QObjectPPvPb
FN:405,_ZN9QtPrivate11QSlotObjectIM14GameControllerFvvENS_4ListIJEEEvEC2ES3_
FN:405,_ZN9QtPrivate11QSlotObjectIM14GameControllerFvvENS_4ListIJEEEvEC1ES3_
FNDA:0,_ZN9QtPrivate16ApplyReturnValueIvEC1EPv
FNDA:0,_ZN9QtPrivate16ApplyReturnValueIvEC2EPv
FNDA:0,_ZN9QtPrivate11FunctorCallINS_11IndexesListIJEEENS_4ListIJEEEvM14GameControllerFvvEE4callES7_PS5_PPv
FNDA:0,_ZN9QtPrivate15FunctionPointerIM14GameControllerFvvEE4callINS_4ListIJEEEvEEvS3_PS1_PPv
FNDA:0,_ZN9QtPrivate15QSlotObjectBaseC2EPFviPS0_P7QObjectPPvPbE
FNDA:0,_ZN9QtPrivate15QSlotObjectBaseD2Ev
FNDA:0,_ZN9QtPrivate11QSlotObjectIM14GameControllerFvvENS_4ListIJEEEvED1Ev
FNDA:0,_ZN9QtPrivate11QSlotObjectIM14GameControllerFvvENS_4ListIJEEEvED2Ev
FNDA:0,_ZN9QtPrivate11QSlotObjectIM14GameControllerFvvENS_4ListIJEEEvE4implEiPNS_15QSlotObjectBaseEP7QObjectPPvPb
FNDA:0,_ZN9QtPrivate11QSlotObjectIM14GameControllerFvvENS_4ListIJEEEvEC1ES3_
FNDA:0,_ZN9QtPrivate11QSlotObjectIM14GameControllerFvvENS_4ListIJEEEvEC2ES3_
FNF:11
FNH:0
DA:88,0
DA:134,0
DA:135,0
DA:167,0
DA:168,0
DA:369,0
DA:378,0
DA:385,0
DA:391,0
DA:393,0
DA:394,0
DA:396,0
DA:397,0
DA:399,0
DA:400,0
DA:402,0
DA:403,0
DA:405,0
LF:18
LH:0
end_of_record
SF:/Applications/Developpement/Qt/5.11.0/clang_64/lib/QtCore.framework/Headers/qrefcount.h
FN:65,_ZN9QtPrivate8RefCount5derefEv
FNDA:0,_ZN9QtPrivate8RefCount5derefEv
FNF:1
FNH:0
DA:66,0
DA:68,0
DA:69,0
DA:71,0
DA:72,0
DA:73,0
DA:74,0
LF:7
LH:0
end_of_record
SF:/Applications/Developpement/Qt/5.11.0/clang_64/lib/QtCore.framework/Headers/qscopedpointer.h
FN:116,_ZNK14QScopedPointerI11QObjectData21QScopedPointerDeleterIS0_EEptEv
FNDA:0,_ZNK14QScopedPointerI11QObjectData21QScopedPointerDeleterIS0_EEptEv
FNF:1
FNH:0
DA:118,0
LF:1
LH:0
end_of_record
SF:/Applications/Developpement/Qt/5.11.0/clang_64/lib/QtCore.framework/Headers/qshareddata.h
FN:172,_ZN28QExplicitlySharedDataPointerI10BurgerDataEC2ERKS1_
FN:172,_ZN28QExplicitlySharedDataPointerI10BurgerDataEC1ERKS1_
FNDA:0,_ZN28QExplicitlySharedDataPointerI10BurgerDataEC1ERKS1_
FNDA:0,_ZN28QExplicitlySharedDataPointerI10BurgerDataEC2ERKS1_
FNF:2
FNH:0
DA:172,0
LF:1
LH:0
end_of_record
SF:/Applications/Developpement/Qt/5.11.0/clang_64/lib/QtCore.framework/Headers/qstring.h
FN:567,_ZN7QString8fromUtf8EPKci
FN:693,_ZN7QStringC1EPKc
FN:693,_ZN7QStringC2EPKc
FN:928,_ZNK7QString6lengthEv
FN:944,_ZNK7QString9constDataEv
FN:1130,_ZN7QStringD1Ev
FN:1130,_ZN7QStringD2Ev
FNDA:0,_ZN7QString8fromUtf8EPKci
FNDA:0,_ZN7QStringC1EPKc
FNDA:0,_ZN7QStringC2EPKc
FNDA:0,_ZNK7QString6lengthEv
FNDA:0,_ZNK7QString9constDataEv
FNDA:0,_ZN7QStringD1Ev
FNDA:0,_ZN7QStringD2Ev
FNF:7
FNH:0
DA:569,0
DA:694,0
DA:695,0
DA:929,0
DA:945,0
DA:1130,0
LF:6
LH:0
end_of_record
SF:/Applications/Developpement/Qt/5.11.0/clang_64/lib/QtQml.framework/Headers/qqmldebug.h
FN:79,__cxx_global_var_init
FNDA:1,__cxx_global_var_init
FNF:1
FNH:1
DA:79,2
LF:1
LH:1
end_of_record
SF:/Library/Developer/CommandLineTools/usr/include/c++/v1/atomic
FN:927,_ZNKSt3__113__atomic_baseIiLb0EE4loadENS_12memory_orderE
FN:985,_ZNSt3__113__atomic_baseIiLb0EEC2Ei
FN:1013,_ZNSt3__113__atomic_baseIiLb1EEC2Ei
FN:1019,_ZNSt3__113__atomic_baseIiLb1EE9fetch_addEiNS_12memory_orderE
FN:1025,_ZNSt3__113__atomic_baseIiLb1EE9fetch_subEiNS_12memory_orderE
FN:1057,_ZNSt3__113__atomic_baseIiLb1EEppEv
FN:1061,_ZNSt3__113__atomic_baseIiLb1EEmmEv
FN:1094,_ZNSt3__16atomicIiEC1Ei
FN:1094,_ZNSt3__16atomicIiEC2Ei
FNDA:0,_ZNKSt3__113__atomic_baseIiLb0EE4loadENS_12memory_orderE
FNDA:0,_ZNSt3__113__atomic_baseIiLb0EEC2Ei
FNDA:0,_ZNSt3__113__atomic_baseIiLb1EEC2Ei
FNDA:0,_ZNSt3__113__atomic_baseIiLb1EE9fetch_addEiNS_12memory_orderE
FNDA:0,_ZNSt3__113__atomic_baseIiLb1EE9fetch_subEiNS_12memory_orderE
FNDA:0,_ZNSt3__113__atomic_baseIiLb1EEppEv
FNDA:0,_ZNSt3__113__atomic_baseIiLb1EEmmEv
FNDA:0,_ZNSt3__16atomicIiEC1Ei
FNDA:0,_ZNSt3__16atomicIiEC2Ei
FNF:9
FNH:0
DA:929,0
DA:985,0
DA:1013,0
DA:1020,0
DA:1026,0
DA:1057,0
DA:1061,0
DA:1094,0
LF:8
LH:0
end_of_record
SF:/Users/tristan/Documents/Sources/BurgerQuiz/controllers/BurgerController.h
FN:94,_ZNK16BurgerController13isInitializedEv
FN:101,_ZNK16BurgerController6burgerEv
FN:106,_ZN16BurgerController7setTeamEN6Burger4TeamE
FN:111,_ZNK16BurgerController4teamEv
FNDA:0,_ZNK16BurgerController13isInitializedEv
FNDA:0,_ZNK16BurgerController6burgerEv
FNDA:0,_ZN16BurgerController7setTeamEN6Burger4TeamE
FNDA:0,_ZNK16BurgerController4teamEv
FNF:4
FNH:0
DA:95,0
DA:101,0
DA:106,0
DA:111,0
LF:4
LH:0
end_of_record
SF:/Users/tristan/Documents/Sources/BurgerQuiz/controllers/GameController.cpp
FN:12,_ZN14GameControllerC1EP7QObject
FN:12,_ZN14GameControllerC2EP7QObject
FN:26,_ZNK14GameController7isReadyEv
FN:30,_ZN14GameController10initializeEv
FN:38,_ZN14GameController13onBurgerReadyEv
FN:58,_ZN14GameController16findSecondBurgerEv
FN:66,__cxx_global_var_init.9
FN:67,_ZN14GameController15onButtonPressedEv
FN:101,_ZN14GameController18onGameStateChangedEv
FNDA:0,_ZN14GameControllerC2EP7QObject
FNDA:0,_ZN14GameControllerC1EP7QObject
FNDA:0,_ZNK14GameController7isReadyEv
FNDA:0,_ZN14GameController10initializeEv
FNDA:0,_ZN14GameController13onBurgerReadyEv
FNDA:0,_ZN14GameController16findSecondBurgerEv
FNDA:1,__cxx_global_var_init.9
FNDA:0,_ZN14GameController15onButtonPressedEv
FNDA:0,_ZN14GameController18onGameStateChangedEv
FNF:9
FNH:1
DA:13,0
DA:14,0
DA:15,0
DA:16,0
DA:17,0
DA:18,0
DA:19,0
DA:20,0
DA:21,0
DA:22,0
DA:23,0
DA:24,0
DA:27,0
DA:28,0
DA:32,0
DA:34,0
DA:35,0
DA:36,0
DA:40,0
DA:41,0
DA:42,0
DA:43,0
DA:45,0
DA:46,0
DA:48,0
DA:49,0
DA:50,0
DA:51,0
DA:52,0
DA:54,0
DA:56,0
DA:60,0
DA:61,0
DA:62,0
DA:66,2
DA:70,0
DA:72,0
DA:73,0
DA:74,0
DA:77,0
DA:78,0
DA:79,0
DA:82,0
DA:84,0
DA:85,0
DA:88,0
DA:89,0
DA:91,0
DA:92,0
DA:93,0
DA:95,0
DA:96,0
DA:98,0
DA:99,0
DA:103,0
DA:104,0
DA:116,0
LF:57
LH:1
end_of_record
SF:/Users/tristan/Documents/Sources/BurgerQuiz/controllers/GameController.h
FN:57,_ZNK14GameController23initializedBurgersCountEv
FNDA:0,_ZNK14GameController23initializedBurgersCountEv
FNF:1
FNH:0
DA:58,0
DA:59,0
DA:60,0
DA:61,0
DA:62,0
DA:63,0
LF:6
LH:0
end_of_record
SF:/Users/tristan/Documents/Sources/BurgerQuiz/domain/Burger.h
FN:60,_ZN6BurgerC2ERKS_
FN:60,_ZN6BurgerC1ERKS_
FNDA:0,_ZN6BurgerC1ERKS_
FNDA:0,_ZN6BurgerC2ERKS_
FNF:2
FNH:0
DA:61,0
LF:1
LH:0
end_of_record
SF:/Users/tristan/Documents/Sources/BurgerQuiz/helpers/DebugHelper.hpp
FN:23,_ZN11DebugHelper12teamToStringEN6Burger4TeamE
FNDA:0,_ZN11DebugHelper12teamToStringEN6Burger4TeamE
FNF:1
FNH:0
DA:24,0
DA:25,0
DA:26,0
DA:27,0
DA:30,0
DA:31,0
LF:6
LH:0
end_of_record
TN:
SF:/Applications/Developpement/Qt/5.11.0/clang_64/lib/QtCore.framework/Headers/qscopedpointer.h
FN:116,_ZNK14QScopedPointerI11QObjectData21QScopedPointerDeleterIS0_EEptEv
FNDA:0,_ZNK14QScopedPointerI11QObjectData21QScopedPointerDeleterIS0_EEptEv
FNF:1
FNH:0
DA:118,0
LF:1
LH:0
end_of_record
SF:/Applications/Developpement/Qt/5.11.0/clang_64/lib/QtQml.framework/Headers/qqmldebug.h
FN:79,__cxx_global_var_init
FNDA:1,__cxx_global_var_init
FNF:1
FNH:1
DA:79,2
LF:1
LH:1
end_of_record
SF:/tmp/build-tests-Desktop_Qt_5_11_0_clang_64bit-Debug/tst_testserialportcontroller/moc_Burger.cpp
FN:78,_ZN6Burger18qt_static_metacallEP7QObjectN11QMetaObject4CallEiPPv
FN:106,_ZNK6Burger10metaObjectEv
FN:111,_ZN6Burger11qt_metacastEPKc
FN:119,_ZN6Burger11qt_metacallEN11QMetaObject4CallEiPPv
FN:137,_ZN6Burger11teamChangedEv
FNDA:0,_ZN6Burger18qt_static_metacallEP7QObjectN11QMetaObject4CallEiPPv
FNDA:0,_ZNK6Burger10metaObjectEv
FNDA:0,_ZN6Burger11qt_metacastEPKc
FNDA:0,_ZN6Burger11qt_metacallEN11QMetaObject4CallEiPPv
FNDA:0,_ZN6Burger11teamChangedEv
FNF:5
FNH:0
DA:80,0
DA:81,0
DA:83,0
DA:84,0
DA:86,0
DA:87,0
DA:88,0
DA:91,0
DA:92,0
DA:93,0
DA:96,0
DA:98,0
DA:108,0
DA:113,0
DA:114,0
DA:115,0
DA:116,0
DA:117,0
DA:121,0
DA:122,0
DA:123,0
DA:124,0
DA:125,0
DA:126,0
DA:127,0
DA:128,0
DA:129,0
DA:130,0
DA:131,0
DA:132,0
DA:133,0
DA:134,0
DA:139,0
DA:140,0
LF:34
LH:0
end_of_record
TN:
SF:/Applications/Developpement/Qt/5.11.0/clang_64/lib/QtCore.framework/Headers/qarraydata.h
FN:123,_ZN10QArrayData10sharedNullEv
FN:234,_ZN15QTypedArrayDataItE10deallocateEP10QArrayData
FN:255,_ZN15QTypedArrayDataItE10sharedNullEv
FNDA:0,_ZN10QArrayData10sharedNullEv
FNDA:0,_ZN15QTypedArrayDataItE10deallocateEP10QArrayData
FNDA:0,_ZN15QTypedArrayDataItE10sharedNullEv
FNF:3
FNH:0
DA:123,0
DA:237,0
DA:238,0
DA:258,0
LF:4
LH:0
end_of_record
SF:/Applications/Developpement/Qt/5.11.0/clang_64/lib/QtCore.framework/Headers/qatomic.h
FN:60,_ZN14QAtomicIntegerIiEC2Ei
FN:162,_ZN10QAtomicIntC2Ei
FN:162,_ZN10QAtomicIntC1Ei
FNDA:0,_ZN14QAtomicIntegerIiEC2Ei
FNDA:0,_ZN10QAtomicIntC1Ei
FNDA:0,_ZN10QAtomicIntC2Ei
FNF:3
FNH:0
DA:60,0
DA:162,0
LF:2
LH:0
end_of_record
SF:/Applications/Developpement/Qt/5.11.0/clang_64/lib/QtCore.framework/Headers/qatomic_cxx11.h
FN:225,_ZN10QAtomicOpsIiE4loadIiEET_RKNSt3__16atomicIS2_EE
FN:263,_ZN10QAtomicOpsIiE3refIiEEbRNSt3__16atomicIT_EE
FN:269,_ZN10QAtomicOpsIiE5derefIiEEbRNSt3__16atomicIT_EE
FNDA:0,_ZN10QAtomicOpsIiE4loadIiEET_RKNSt3__16atomicIS2_EE
FNDA:0,_ZN10QAtomicOpsIiE3refIiEEbRNSt3__16atomicIT_EE
FNDA:0,_ZN10QAtomicOpsIiE5derefIiEEbRNSt3__16atomicIT_EE
FNF:3
FNH:0
DA:227,0
DA:265,0
DA:271,0
LF:3
LH:0
end_of_record
SF:/Applications/Developpement/Qt/5.11.0/clang_64/lib/QtCore.framework/Headers/qbasicatomic.h
FN:91,_ZNK19QBasicAtomicIntegerIiE4loadEv
FN:102,_ZN19QBasicAtomicIntegerIiE3refEv
FN:103,_ZN19QBasicAtomicIntegerIiE5derefEv
FN:209,_ZN19QBasicAtomicIntegerIiEC2Ei
FNDA:0,_ZNK19QBasicAtomicIntegerIiE4loadEv
FNDA:0,_ZN19QBasicAtomicIntegerIiE3refEv
FNDA:0,_ZN19QBasicAtomicIntegerIiE5derefEv
FNDA:0,_ZN19QBasicAtomicIntegerIiEC2Ei
FNF:4
FNH:0
DA:91,0
DA:102,0
DA:103,0
DA:209,0
LF:4
LH:0
end_of_record
SF:/Applications/Developpement/Qt/5.11.0/clang_64/lib/QtCore.framework/Headers/qrefcount.h
FN:54,_ZN9QtPrivate8RefCount3refEv
FN:65,_ZN9QtPrivate8RefCount5derefEv
FNDA:0,_ZN9QtPrivate8RefCount3refEv
FNDA:0,_ZN9QtPrivate8RefCount5derefEv
FNF:2
FNH:0
DA:55,0
DA:57,0
DA:58,0
DA:60,0
DA:61,0
DA:62,0
DA:63,0
DA:66,0
DA:68,0
DA:69,0
DA:71,0
DA:72,0
DA:73,0
DA:74,0
LF:14
LH:0
end_of_record
SF:/Applications/Developpement/Qt/5.11.0/clang_64/lib/QtCore.framework/Headers/qshareddata.h
FN:60,_ZN11QSharedDataC2Ev
FN:146,_ZN28QExplicitlySharedDataPointerI10BurgerDataEptEv
FN:147,_ZNK28QExplicitlySharedDataPointerI10BurgerDataEptEv
FN:169,_ZN28QExplicitlySharedDataPointerI10BurgerDataED1Ev
FN:169,_ZN28QExplicitlySharedDataPointerI10BurgerDataED2Ev
FN:270,_ZN28QExplicitlySharedDataPointerI10BurgerDataEC2EPS0_
FN:270,_ZN28QExplicitlySharedDataPointerI10BurgerDataEC1EPS0_
FNDA:0,_ZN11QSharedDataC2Ev
FNDA:0,_ZN28QExplicitlySharedDataPointerI10BurgerDataEptEv
FNDA:0,_ZNK28QExplicitlySharedDataPointerI10BurgerDataEptEv
FNDA:0,_ZN28QExplicitlySharedDataPointerI10BurgerDataED1Ev
FNDA:0,_ZN28QExplicitlySharedDataPointerI10BurgerDataED2Ev
FNDA:0,_ZN28QExplicitlySharedDataPointerI10BurgerDataEC1EPS0_
FNDA:0,_ZN28QExplicitlySharedDataPointerI10BurgerDataEC2EPS0_
FNF:7
FNH:0
DA:60,0
DA:146,0
DA:147,0
DA:169,0
DA:271,0
DA:272,0
LF:6
LH:0
end_of_record
SF:/Applications/Developpement/Qt/5.11.0/clang_64/lib/QtCore.framework/Headers/qstring.h
FN:952,_ZN7QStringC1ERKS_
FN:952,_ZN7QStringC2ERKS_
FN:1129,_ZN7QStringC1Ev
FN:1129,_ZN7QStringC2Ev
FN:1130,_ZN7QStringD2Ev
FN:1130,_ZN7QStringD1Ev
FNDA:0,_ZN7QStringC1ERKS_
FNDA:0,_ZN7QStringC2ERKS_
FNDA:0,_ZN7QStringC1Ev
FNDA:0,_ZN7QStringC2Ev
FNDA:0,_ZN7QStringD1Ev
FNDA:0,_ZN7QStringD2Ev
FNF:6
FNH:0
DA:952,0
DA:953,0
DA:1129,0
DA:1130,0
LF:4
LH:0
end_of_record
SF:/Applications/Developpement/Qt/5.11.0/clang_64/lib/QtQml.framework/Headers/qqmldebug.h
FN:79,__cxx_global_var_init
FNDA:1,__cxx_global_var_init
FNF:1
FNH:1
DA:79,2
LF:1
LH:1
end_of_record
SF:/Library/Developer/CommandLineTools/usr/include/c++/v1/atomic
FN:927,_ZNKSt3__113__atomic_baseIiLb0EE4loadENS_12memory_orderE
FN:985,_ZNSt3__113__atomic_baseIiLb0EEC2Ei
FN:1013,_ZNSt3__113__atomic_baseIiLb1EEC2Ei
FN:1019,_ZNSt3__113__atomic_baseIiLb1EE9fetch_addEiNS_12memory_orderE
FN:1025,_ZNSt3__113__atomic_baseIiLb1EE9fetch_subEiNS_12memory_orderE
FN:1057,_ZNSt3__113__atomic_baseIiLb1EEppEv
FN:1061,_ZNSt3__113__atomic_baseIiLb1EEmmEv
FN:1094,_ZNSt3__16atomicIiEC2Ei
FN:1094,_ZNSt3__16atomicIiEC1Ei
FNDA:0,_ZNKSt3__113__atomic_baseIiLb0EE4loadENS_12memory_orderE
FNDA:0,_ZNSt3__113__atomic_baseIiLb0EEC2Ei
FNDA:0,_ZNSt3__113__atomic_baseIiLb1EEC2Ei
FNDA:0,_ZNSt3__113__atomic_baseIiLb1EE9fetch_addEiNS_12memory_orderE
FNDA:0,_ZNSt3__113__atomic_baseIiLb1EE9fetch_subEiNS_12memory_orderE
FNDA:0,_ZNSt3__113__atomic_baseIiLb1EEppEv
FNDA:0,_ZNSt3__113__atomic_baseIiLb1EEmmEv
FNDA:0,_ZNSt3__16atomicIiEC1Ei
FNDA:0,_ZNSt3__16atomicIiEC2Ei
FNF:9
FNH:0
DA:929,0
DA:985,0
DA:1013,0
DA:1020,0
DA:1026,0
DA:1057,0
DA:1061,0
DA:1094,0
LF:8
LH:0
end_of_record
SF:/Users/tristan/Documents/Sources/BurgerQuiz/domain/Burger.cpp
FN:4,_ZN6BurgerC2Ev
FN:4,_ZN6BurgerC1Ev
FN:8,_ZN6BurgerD1Ev
FN:8,_ZN6BurgerD2Ev
FN:8,_ZN6BurgerD0Ev
FN:10,_ZN6BurgerC2ENS_4TeamE7QString
FN:10,_ZN6BurgerC1ENS_4TeamE7QString
FN:17,_ZN6Burger7setTeamENS_4TeamE
FN:22,_ZNK6Burger4teamEv
FN:27,_ZNK6Burger8portNameEv
FN:32,_ZN6Burger11setPortNameE7QString
FN:36,_ZNK6Burger8ledStateEv
FN:41,_ZN6Burger11setLedStateENS_8LedStateE
FN:46,_ZNK6Burger11burgerStateEv
FN:51,_ZN6Burger14setBurgerStateENS_11BurgerStateE
FN:56,_ZNK6Burger5validEv
FN:61,_ZNK6Burger7isReadyEv
FN:66,_ZN6Burger6enableEv
FN:71,_ZN6Burger7disableEv
FN:76,_ZNK6Burger9isEnabledEv
FNDA:0,_ZN6BurgerC2Ev
FNDA:0,_ZN6BurgerC1Ev
FNDA:0,_ZN6BurgerD2Ev
FNDA:0,_ZN6BurgerD1Ev
FNDA:0,_ZN6BurgerD0Ev
FNDA:0,_ZN6BurgerC2ENS_4TeamE7QString
FNDA:0,_ZN6BurgerC1ENS_4TeamE7QString
FNDA:0,_ZN6Burger7setTeamENS_4TeamE
FNDA:0,_ZNK6Burger4teamEv
FNDA:0,_ZNK6Burger8portNameEv
FNDA:0,_ZN6Burger11setPortNameE7QString
FNDA:0,_ZNK6Burger8ledStateEv
FNDA:0,_ZN6Burger11setLedStateENS_8LedStateE
FNDA:0,_ZNK6Burger11burgerStateEv
FNDA:0,_ZN6Burger14setBurgerStateENS_11BurgerStateE
FNDA:0,_ZNK6Burger5validEv
FNDA:0,_ZNK6Burger7isReadyEv
FNDA:0,_ZN6Burger6enableEv
FNDA:0,_ZN6Burger7disableEv
FNDA:0,_ZNK6Burger9isEnabledEv
FNF:20
FNH:0
DA:4,0
DA:5,0
DA:6,0
DA:8,0
DA:10,0
DA:11,0
DA:12,0
DA:13,0
DA:14,0
DA:15,0
DA:19,0
DA:20,0
DA:24,0
DA:29,0
DA:33,0
DA:34,0
DA:38,0
DA:43,0
DA:44,0
DA:48,0
DA:53,0
DA:54,0
DA:58,0
DA:63,0
DA:68,0
DA:69,0
DA:73,0
DA:74,0
DA:78,0
LF:29
LH:0
end_of_record
SF:/Users/tristan/Documents/Sources/BurgerQuiz/domain/Burger.h
FN:15,_ZN10BurgerDataC1Ev
FN:15,_ZN10BurgerDataC2Ev
FN:16,_ZN10BurgerDataD2Ev
FN:16,_ZN10BurgerDataD1Ev
FNDA:0,_ZN10BurgerDataC1Ev
FNDA:0,_ZN10BurgerDataC2Ev
FNDA:0,_ZN10BurgerDataD1Ev
FNDA:0,_ZN10BurgerDataD2Ev
FNF:4
FNH:0
DA:15,0
DA:16,0
DA:26,0
DA:34,0
LF:4
LH:0
end_of_record
TN:
SF:/Applications/Developpement/Qt/5.11.0/clang_64/lib/QtCore.framework/Headers/qarraydata.h
FN:57,_ZN10QArrayData4dataEv
FN:206,_ZN15QTypedArrayDataIcE4dataEv
FN:234,_ZN15QTypedArrayDataIcE10deallocateEP10QArrayData
FNDA:0,_ZN10QArrayData4dataEv
FNDA:0,_ZN15QTypedArrayDataIcE4dataEv
FNDA:0,_ZN15QTypedArrayDataIcE10deallocateEP10QArrayData
FNF:3
FNH:0
DA:59,0
DA:61,0
DA:206,0
DA:237,0
DA:238,0
LF:5
LH:0
end_of_record
SF:/Applications/Developpement/Qt/5.11.0/clang_64/lib/QtCore.framework/Headers/qatomic_cxx11.h
FN:225,_ZN10QAtomicOpsIiE4loadIiEET_RKNSt3__16atomicIS2_EE
FN:237,_ZN10QAtomicOpsIiE11loadAcquireIiEET_RKNSt3__16atomicIS2_EE
FN:255,_ZN10QAtomicOpsIiE12storeReleaseIiEEvRNSt3__16atomicIT_EES4_
FN:269,_ZN10QAtomicOpsIiE5derefIiEEbRNSt3__16atomicIT_EE
FNDA:0,_ZN10QAtomicOpsIiE4loadIiEET_RKNSt3__16atomicIS2_EE
FNDA:0,_ZN10QAtomicOpsIiE11loadAcquireIiEET_RKNSt3__16atomicIS2_EE
FNDA:0,_ZN10QAtomicOpsIiE12storeReleaseIiEEvRNSt3__16atomicIT_EES4_
FNDA:0,_ZN10QAtomicOpsIiE5derefIiEEbRNSt3__16atomicIT_EE
FNF:4
FNH:0
DA:227,0
DA:239,0
DA:257,0
DA:258,0
DA:271,0
LF:5
LH:0
end_of_record
SF:/Applications/Developpement/Qt/5.11.0/clang_64/lib/QtCore.framework/Headers/qbasicatomic.h
FN:91,_ZNK19QBasicAtomicIntegerIiE4loadEv
FN:94,_ZNK19QBasicAtomicIntegerIiE11loadAcquireEv
FN:95,_ZN19QBasicAtomicIntegerIiE12storeReleaseEi
FN:103,_ZN19QBasicAtomicIntegerIiE5derefEv
FNDA:0,_ZNK19QBasicAtomicIntegerIiE4loadEv
FNDA:0,_ZNK19QBasicAtomicIntegerIiE11loadAcquireEv
FNDA:0,_ZN19QBasicAtomicIntegerIiE12storeReleaseEi
FNDA:0,_ZN19QBasicAtomicIntegerIiE5derefEv
FNF:4
FNH:0
DA:91,0
DA:94,0
DA:95,0
DA:103,0
LF:4
LH:0
end_of_record
SF:/Applications/Developpement/Qt/5.11.0/clang_64/lib/QtCore.framework/Headers/qbytearray.h
FN:469,_ZN10QByteArrayD2Ev
FN:469,_ZN10QByteArrayD1Ev
FN:470,_ZNK10QByteArray4sizeEv
FN:492,_ZNK10QByteArray9constDataEv
FN:603,_ZeqRK10QByteArrayS1_
FNDA:0,_ZN10QByteArrayD1Ev
FNDA:0,_ZN10QByteArrayD2Ev
FNDA:0,_ZNK10QByteArray4sizeEv
FNDA:0,_ZNK10QByteArray9constDataEv
FNDA:0,_ZeqRK10QByteArrayS1_
FNF:5
FNH:0
DA:469,0
DA:471,0
DA:493,0
DA:604,0
LF:4
LH:0
end_of_record
SF:/Applications/Developpement/Qt/5.11.0/clang_64/lib/QtCore.framework/Headers/qflags.h
FN:57,_ZN5QFlagC1Ei
FN:57,_ZN5QFlagC2Ei
FN:71,_ZNK5QFlagcvjEv
FN:122,_ZN6QFlagsIN9QMetaType8TypeFlagEEC1E5QFlag
FN:122,_ZN6QFlagsIN9QMetaType8TypeFlagEEC2E5QFlag
FN:133,_ZN6QFlagsIN9QMetaType8TypeFlagEEoRES1_
FNDA:0,_ZN5QFlagC1Ei
FNDA:0,_ZN5QFlagC2Ei
FNDA:0,_ZNK5QFlagcvjEv
FNDA:0,_ZN6QFlagsIN9QMetaType8TypeFlagEEC1E5QFlag
FNDA:0,_ZN6QFlagsIN9QMetaType8TypeFlagEEC2E5QFlag
FNDA:0,_ZN6QFlagsIN9QMetaType8TypeFlagEEoRES1_
FNF:6
FNH:0
DA:57,0
DA:71,0
DA:122,0
DA:133,0
LF:4
LH:0
end_of_record
SF:/Applications/Developpement/Qt/5.11.0/clang_64/lib/QtCore.framework/Headers/qmetatype.h
FN:767,_ZN17QtMetaTypePrivate23QMetaTypeFunctionHelperIN6Burger4TeamELb1EE8DestructEPv
FN:773,_ZN17QtMetaTypePrivate23QMetaTypeFunctionHelperIN6Burger4TeamELb1EE9ConstructEPvPKv
FN:1438,_ZN9QtPrivate17MetaObjectForTypeIN6Burger4TeamEvE5valueEv
FN:1515,_ZN9QtPrivate34SequentialContainerConverterHelperIN6Burger4TeamELb0EE17registerConverterEi
FN:1538,_ZN9QtPrivate35AssociativeContainerConverterHelperIN6Burger4TeamELb0EE17registerConverterEi
FN:1591,_ZN9QtPrivate6IsPairIN6Burger4TeamEE17registerConverterEi
FN:1607,_ZN9QtPrivate26MetaTypeSmartPointerHelperIN6Burger4TeamEvE17registerConverterEi
FN:1634,_ZN12QMetaTypeId2IN6Burger4TeamEE14qt_metatype_idEv
FN:1646,_ZN9QtPrivate17QMetaTypeIdHelperIN6Burger4TeamELb1EE14qt_metatype_idEv
FN:1700,_Z27qRegisterNormalizedMetaTypeIN6Burger4TeamEEiRK10QByteArrayPT_N9QtPrivate21MetaTypeDefinedHelperIS5_Xaasr12QMetaTypeId2IS5_EE7Definedntsr12QMetaTypeId2IS5_EE9IsBuiltInEE11DefinedTypeE
FN:1737,_Z17qRegisterMetaTypeIN6Burger4TeamEEiPKcPT_N9QtPrivate21MetaTypeDefinedHelperIS4_Xaasr12QMetaTypeId2IS4_EE7Definedntsr12QMetaTypeId2IS4_EE9IsBuiltInEE11DefinedTypeE
FN:1767,_Z11qMetaTypeIdIN6Burger4TeamEEiv
FN:1774,_Z17qRegisterMetaTypeIN6Burger4TeamEEiv
FNDA:0,_ZN17QtMetaTypePrivate23QMetaTypeFunctionHelperIN6Burger4TeamELb1EE8DestructEPv
FNDA:0,_ZN17QtMetaTypePrivate23QMetaTypeFunctionHelperIN6Burger4TeamELb1EE9ConstructEPvPKv
FNDA:0,_ZN9QtPrivate17MetaObjectForTypeIN6Burger4TeamEvE5valueEv
FNDA:0,_ZN9QtPrivate34SequentialContainerConverterHelperIN6Burger4TeamELb0EE17registerConverterEi
FNDA:0,_ZN9QtPrivate35AssociativeContainerConverterHelperIN6Burger4TeamELb0EE17registerConverterEi
FNDA:0,_ZN9QtPrivate6IsPairIN6Burger4TeamEE17registerConverterEi
FNDA:0,_ZN9QtPrivate26MetaTypeSmartPointerHelperIN6Burger4TeamEvE17registerConverterEi
FNDA:0,_ZN12QMetaTypeId2IN6Burger4TeamEE14qt_metatype_idEv
FNDA:0,_ZN9QtPrivate17QMetaTypeIdHelperIN6Burger4TeamELb1EE14qt_metatype_idEv
FNDA:0,_Z27qRegisterNormalizedMetaTypeIN6Burger4TeamEEiRK10QByteArrayPT_N9QtPrivate21MetaTypeDefinedHelperIS5_Xaasr12QMetaTypeId2IS5_EE7Definedntsr12QMetaTypeId2IS5_EE9IsBuiltInEE11DefinedTypeE
FNDA:0,_Z17qRegisterMetaTypeIN6Burger4TeamEEiPKcPT_N9QtPrivate21MetaTypeDefinedHelperIS4_Xaasr12QMetaTypeId2IS4_EE7Definedntsr12QMetaTypeId2IS4_EE9IsBuiltInEE11DefinedTypeE
FNDA:0,_Z11qMetaTypeIdIN6Burger4TeamEEiv
FNDA:0,_Z17qRegisterMetaTypeIN6Burger4TeamEEiv
FNF:13
FNH:0
DA:770,0
DA:771,0
DA:775,0
DA:776,0
DA:777,0
DA:778,0
DA:1438,0
DA:1517,0
DA:1540,0
DA:1593,0
DA:1607,0
DA:1634,0
DA:1647,0
DA:1708,0
DA:1710,0
DA:1711,0
DA:1712,0
DA:1714,0
DA:1716,0
DA:1717,0
DA:1719,0
DA:1723,0
DA:1724,0
DA:1726,0
DA:1727,0
DA:1728,0
DA:1729,0
DA:1730,0
DA:1731,0
DA:1733,0
DA:1734,0
DA:1747,0
DA:1749,0
DA:1750,0
DA:1770,0
DA:1776,0
LF:36
LH:0
end_of_record
SF:/Applications/Developpement/Qt/5.11.0/clang_64/lib/QtCore.framework/Headers/qrefcount.h
FN:65,_ZN9QtPrivate8RefCount5derefEv
FNDA:0,_ZN9QtPrivate8RefCount5derefEv
FNF:1
FNH:0
DA:66,0
DA:68,0
DA:69,0
DA:71,0
DA:72,0
DA:73,0
DA:74,0
LF:7
LH:0
end_of_record
SF:/Applications/Developpement/Qt/5.11.0/clang_64/lib/QtCore.framework/Headers/qscopedpointer.h
FN:116,_ZNK14QScopedPointerI11QObjectData21QScopedPointerDeleterIS0_EEptEv
FNDA:0,_ZNK14QScopedPointerI11QObjectData21QScopedPointerDeleterIS0_EEptEv
FNF:1
FNH:0
DA:118,0
LF:1
LH:0
end_of_record
SF:/Applications/Developpement/Qt/5.11.0/clang_64/lib/QtQml.framework/Headers/qqmldebug.h
FN:79,__cxx_global_var_init
FNDA:1,__cxx_global_var_init
FNF:1
FNH:1
DA:79,2
LF:1
LH:1
end_of_record
SF:/Library/Developer/CommandLineTools/usr/include/c++/v1/atomic
FN:919,_ZNSt3__113__atomic_baseIiLb0EE5storeEiNS_12memory_orderE
FN:927,_ZNKSt3__113__atomic_baseIiLb0EE4loadENS_12memory_orderE
FN:1025,_ZNSt3__113__atomic_baseIiLb1EE9fetch_subEiNS_12memory_orderE
FN:1061,_ZNSt3__113__atomic_baseIiLb1EEmmEv
FNDA:0,_ZNSt3__113__atomic_baseIiLb0EE5storeEiNS_12memory_orderE
FNDA:0,_ZNKSt3__113__atomic_baseIiLb0EE4loadENS_12memory_orderE
FNDA:0,_ZNSt3__113__atomic_baseIiLb1EE9fetch_subEiNS_12memory_orderE
FNDA:0,_ZNSt3__113__atomic_baseIiLb1EEmmEv
FNF:4
FNH:0
DA:921,0
DA:929,0
DA:1026,0
DA:1061,0
LF:4
LH:0
end_of_record
SF:/Users/tristan/Documents/Sources/BurgerQuiz/domain/Burger.h
FN:151,_ZN11QMetaTypeIdIN6Burger4TeamEE14qt_metatype_idEv
FNDA:0,_ZN11QMetaTypeIdIN6Burger4TeamEE14qt_metatype_idEv
FNF:1
FNH:0
DA:151,0
LF:1
LH:0
end_of_record
SF:/Users/tristan/Documents/Sources/BurgerQuiz/controllers/GameController.h
FN:28,_ZN14GameControllerD1Ev
FN:28,_ZN14GameControllerD2Ev
FN:28,_ZN14GameControllerD0Ev
FNDA:0,_ZN14GameControllerD1Ev
FNDA:0,_ZN14GameControllerD0Ev
FNDA:0,_ZN14GameControllerD2Ev
FNF:3
FNH:0
DA:28,0
LF:1
LH:0
end_of_record
SF:/tmp/build-tests-Desktop_Qt_5_11_0_clang_64bit-Debug/tst_testserialportcontroller/moc_GameController.cpp
FN:124,_ZN14GameController18qt_static_metacallEP7QObjectN11QMetaObject4CallEiPPv
FN:223,_ZNK14GameController10metaObjectEv
FN:228,_ZN14GameController11qt_metacastEPKc
FN:236,_ZN14GameController11qt_metacallEN11QMetaObject4CallEiPPv
FN:271,_ZN14GameController9gameReadyEv
FN:277,_ZN14GameController14burgerSelectedEN6Burger4TeamE
FN:284,_ZN14GameController17burgerInitializedEN6Burger4TeamE
FN:291,_ZN14GameController16gameStateChangedEv
FNDA:0,_ZN14GameController18qt_static_metacallEP7QObjectN11QMetaObject4CallEiPPv
FNDA:0,_ZNK14GameController10metaObjectEv
FNDA:0,_ZN14GameController11qt_metacastEPKc
FNDA:0,_ZN14GameController11qt_metacallEN11QMetaObject4CallEiPPv
FNDA:0,_ZN14GameController9gameReadyEv
FNDA:0,_ZN14GameController14burgerSelectedEN6Burger4TeamE
FNDA:0,_ZN14GameController17burgerInitializedEN6Burger4TeamE
FNDA:0,_ZN14GameController16gameStateChangedEv
FNF:8
FNH:0
DA:126,0
DA:127,0
DA:129,0
DA:130,0
DA:131,0
DA:132,0
DA:133,0
DA:134,0
DA:135,0
DA:136,0
DA:137,0
DA:138,0
DA:140,0
DA:141,0
DA:142,0
DA:143,0
DA:145,0
DA:146,0
DA:148,0
DA:150,0
DA:152,0
DA:153,0
DA:155,0
DA:157,0
DA:159,0
DA:160,0
DA:163,0
DA:164,0
DA:165,0
DA:170,0
DA:171,0
DA:172,0
DA:177,0
DA:178,0
DA:179,0
DA:184,0
DA:185,0
DA:186,0
DA:189,0
DA:191,0
DA:192,0
DA:194,0
DA:195,0
DA:196,0
DA:197,0
DA:199,0
DA:200,0
DA:202,0
DA:203,0
DA:205,0
DA:206,0
DA:207,0
DA:208,0
DA:209,0
DA:210,0
DA:212,0
DA:213,0
DA:215,0
DA:225,0
DA:230,0
DA:231,0
DA:232,0
DA:233,0
DA:234,0
DA:238,0
DA:239,0
DA:240,0
DA:241,0
DA:242,0
DA:243,0
DA:244,0
DA:245,0
DA:246,0
DA:247,0
DA:248,0
DA:249,0
DA:251,0
DA:252,0
DA:253,0
DA:254,0
DA:255,0
DA:256,0
DA:257,0
DA:258,0
DA:259,0
DA:260,0
DA:261,0
DA:262,0
DA:263,0
DA:264,0
DA:265,0
DA:267,0
DA:268,0
DA:273,0
DA:274,0
DA:279,0
DA:280,0
DA:281,0
DA:286,0
DA:287,0
DA:288,0
DA:293,0
DA:294,0
LF:103
LH:0
end_of_record
TN:
SF:/Applications/Developpement/Qt/5.11.0/clang_64/lib/QtCore.framework/Headers/qarraydata.h
FN:234,_ZN15QTypedArrayDataIcE10deallocateEP10QArrayData
FN:234,_ZN15QTypedArrayDataItE10deallocateEP10QArrayData
FNDA:0,_ZN15QTypedArrayDataItE10deallocateEP10QArrayData
FNDA:0,_ZN15QTypedArrayDataIcE10deallocateEP10QArrayData
FNF:2
FNH:0
DA:237,0
DA:238,0
LF:2
LH:0
end_of_record
SF:/Applications/Developpement/Qt/5.11.0/clang_64/lib/QtCore.framework/Headers/qatomic_cxx11.h
FN:225,_ZN10QAtomicOpsIiE4loadIiEET_RKNSt3__16atomicIS2_EE
FN:263,_ZN10QAtomicOpsIiE3refIiEEbRNSt3__16atomicIT_EE
FN:269,_ZN10QAtomicOpsIiE5derefIiEEbRNSt3__16atomicIT_EE
FNDA:0,_ZN10QAtomicOpsIiE4loadIiEET_RKNSt3__16atomicIS2_EE
FNDA:0,_ZN10QAtomicOpsIiE3refIiEEbRNSt3__16atomicIT_EE
FNDA:0,_ZN10QAtomicOpsIiE5derefIiEEbRNSt3__16atomicIT_EE
FNF:3
FNH:0
DA:227,0
DA:265,0
DA:271,0
LF:3
LH:0
end_of_record
SF:/Applications/Developpement/Qt/5.11.0/clang_64/lib/QtCore.framework/Headers/qbasicatomic.h
FN:91,_ZNK19QBasicAtomicIntegerIiE4loadEv
FN:102,_ZN19QBasicAtomicIntegerIiE3refEv
FN:103,_ZN19QBasicAtomicIntegerIiE5derefEv
FNDA:0,_ZNK19QBasicAtomicIntegerIiE4loadEv
FNDA:0,_ZN19QBasicAtomicIntegerIiE3refEv
FNDA:0,_ZN19QBasicAtomicIntegerIiE5derefEv
FNF:3
FNH:0
DA:91,0
DA:102,0
DA:103,0
LF:3
LH:0
end_of_record
SF:/Applications/Developpement/Qt/5.11.0/clang_64/lib/QtCore.framework/Headers/qbytearray.h
FN:469,_ZN10QByteArrayD1Ev
FN:469,_ZN10QByteArrayD2Ev
FN:498,_ZN10QByteArrayC1ERKS_
FN:498,_ZN10QByteArrayC2ERKS_
FNDA:0,_ZN10QByteArrayD1Ev
FNDA:0,_ZN10QByteArrayD2Ev
FNDA:0,_ZN10QByteArrayC1ERKS_
FNDA:0,_ZN10QByteArrayC2ERKS_
FNF:4
FNH:0
DA:469,0
DA:498,0
DA:499,0
LF:3
LH:0
end_of_record
SF:/Applications/Developpement/Qt/5.11.0/clang_64/lib/QtCore.framework/Headers/qrefcount.h
FN:54,_ZN9QtPrivate8RefCount3refEv
FN:65,_ZN9QtPrivate8RefCount5derefEv
FNDA:0,_ZN9QtPrivate8RefCount3refEv
FNDA:0,_ZN9QtPrivate8RefCount5derefEv
FNF:2
FNH:0
DA:55,0
DA:57,0
DA:58,0
DA:60,0
DA:61,0
DA:62,0
DA:63,0
DA:66,0
DA:68,0
DA:69,0
DA:71,0
DA:72,0
DA:73,0
DA:74,0
LF:14
LH:0
end_of_record
SF:/Applications/Developpement/Qt/5.11.0/clang_64/lib/QtCore.framework/Headers/qscopedpointer.h
FN:116,_ZNK14QScopedPointerI11QObjectData21QScopedPointerDeleterIS0_EEptEv
FNDA:0,_ZNK14QScopedPointerI11QObjectData21QScopedPointerDeleterIS0_EEptEv
FNF:1
FNH:0
DA:118,0
LF:1
LH:0
end_of_record
SF:/Applications/Developpement/Qt/5.11.0/clang_64/lib/QtCore.framework/Headers/qstring.h
FN:952,_ZN7QStringC1ERKS_
FN:952,_ZN7QStringC2ERKS_
FN:1130,_ZN7QStringD1Ev
FN:1130,_ZN7QStringD2Ev
FNDA:0,_ZN7QStringC1ERKS_
FNDA:0,_ZN7QStringC2ERKS_
FNDA:0,_ZN7QStringD1Ev
FNDA:0,_ZN7QStringD2Ev
FNF:4
FNH:0
DA:952,0
DA:953,0
DA:1130,0
LF:3
LH:0
end_of_record
SF:/Applications/Developpement/Qt/5.11.0/clang_64/lib/QtQml.framework/Headers/qqmldebug.h
FN:79,__cxx_global_var_init
FNDA:1,__cxx_global_var_init
FNF:1
FNH:1
DA:79,2
LF:1
LH:1
end_of_record
SF:/Library/Developer/CommandLineTools/usr/include/c++/v1/atomic
FN:927,_ZNKSt3__113__atomic_baseIiLb0EE4loadENS_12memory_orderE
FN:1019,_ZNSt3__113__atomic_baseIiLb1EE9fetch_addEiNS_12memory_orderE
FN:1025,_ZNSt3__113__atomic_baseIiLb1EE9fetch_subEiNS_12memory_orderE
FN:1057,_ZNSt3__113__atomic_baseIiLb1EEppEv
FN:1061,_ZNSt3__113__atomic_baseIiLb1EEmmEv
FNDA:0,_ZNKSt3__113__atomic_baseIiLb0EE4loadENS_12memory_orderE
FNDA:0,_ZNSt3__113__atomic_baseIiLb1EE9fetch_addEiNS_12memory_orderE
FNDA:0,_ZNSt3__113__atomic_baseIiLb1EE9fetch_subEiNS_12memory_orderE
FNDA:0,_ZNSt3__113__atomic_baseIiLb1EEppEv
FNDA:0,_ZNSt3__113__atomic_baseIiLb1EEmmEv
FNF:5
FNH:0
DA:929,0
DA:1020,0
DA:1026,0
DA:1057,0
DA:1061,0
LF:5
LH:0
end_of_record
SF:/tmp/build-tests-Desktop_Qt_5_11_0_clang_64bit-Debug/tst_testserialportcontroller/moc_BurgerController.cpp
FN:154,_ZN16BurgerController18qt_static_metacallEP7QObjectN11QMetaObject4CallEiPPv
FN:255,_ZNK16BurgerController10metaObjectEv
FN:260,_ZN16BurgerController11qt_metacastEPKc
FN:268,_ZN16BurgerController11qt_metacallEN11QMetaObject4CallEiPPv
FN:286,_ZN16BurgerController5errorE7QString
FN:293,_ZN16BurgerController11initializedEv
FN:299,_ZN16BurgerController10portOpenedEv
FN:305,_ZN16BurgerController8pingSentEv
FN:311,_ZN16BurgerController12pongReceivedEv
FN:317,_ZN16BurgerController5readyEv
FN:323,_ZN16BurgerController13buttonPressedEv
FN:329,_ZN16BurgerController11selectionneEv
FNDA:0,_ZN16BurgerController18qt_static_metacallEP7QObjectN11QMetaObject4CallEiPPv
FNDA:0,_ZNK16BurgerController10metaObjectEv
FNDA:0,_ZN16BurgerController11qt_metacastEPKc
FNDA:0,_ZN16BurgerController11qt_metacallEN11QMetaObject4CallEiPPv
FNDA:0,_ZN16BurgerController5errorE7QString
FNDA:0,_ZN16BurgerController11initializedEv
FNDA:0,_ZN16BurgerController10portOpenedEv
FNDA:0,_ZN16BurgerController8pingSentEv
FNDA:0,_ZN16BurgerController12pongReceivedEv
FNDA:0,_ZN16BurgerController5readyEv
FNDA:0,_ZN16BurgerController13buttonPressedEv
FNDA:0,_ZN16BurgerController11selectionneEv
FNF:12
FNH:0
DA:156,0
DA:157,0
DA:159,0
DA:160,0
DA:161,0
DA:162,0
DA:163,0
DA:164,0
DA:165,0
DA:166,0
DA:167,0
DA:168,0
DA:169,0
DA:170,0
DA:171,0
DA:172,0
DA:173,0
DA:174,0
DA:175,0
DA:176,0
DA:177,0
DA:178,0
DA:179,0
DA:180,0
DA:181,0
DA:182,0
DA:183,0
DA:184,0
DA:185,0
DA:187,0
DA:188,0
DA:189,0
DA:192,0
DA:193,0
DA:194,0
DA:199,0
DA:200,0
DA:201,0
DA:206,0
DA:207,0
DA:208,0
DA:213,0
DA:214,0
DA:215,0
DA:220,0
DA:221,0
DA:222,0
DA:227,0
DA:228,0
DA:229,0
DA:234,0
DA:235,0
DA:236,0
DA:241,0
DA:242,0
DA:243,0
DA:246,0
DA:247,0
DA:257,0
DA:262,0
DA:263,0
DA:264,0
DA:265,0
DA:266,0
DA:270,0
DA:271,0
DA:272,0
DA:273,0
DA:274,0
DA:275,0
DA:276,0
DA:277,0
DA:278,0
DA:279,0
DA:280,0
DA:281,0
DA:282,0
DA:283,0
DA:288,0
DA:289,0
DA:290,0
DA:295,0
DA:296,0
DA:301,0
DA:302,0
DA:307,0
DA:308,0
DA:313,0
DA:314,0
DA:319,0
DA:320,0
DA:325,0
DA:326,0
DA:331,0
DA:332,0
LF:95
LH:0
end_of_record
TN:
SF:/Applications/Developpement/Qt/5.11.0/clang_64/lib/QtCore.framework/Headers/qarraydata.h
FN:234,_ZN15QTypedArrayDataItE10deallocateEP10QArrayData
FN:234,_ZN15QTypedArrayDataIcE10deallocateEP10QArrayData
FNDA:0,_ZN15QTypedArrayDataIcE10deallocateEP10QArrayData
FNDA:0,_ZN15QTypedArrayDataItE10deallocateEP10QArrayData
FNF:2
FNH:0
DA:237,0
DA:238,0
LF:2
LH:0
end_of_record
SF:/Applications/Developpement/Qt/5.11.0/clang_64/lib/QtCore.framework/Headers/qatomic_cxx11.h
FN:225,_ZN10QAtomicOpsIiE4loadIiEET_RKNSt3__16atomicIS2_EE
FN:263,_ZN10QAtomicOpsIiE3refIiEEbRNSt3__16atomicIT_EE
FN:269,_ZN10QAtomicOpsIiE5derefIiEEbRNSt3__16atomicIT_EE
FNDA:0,_ZN10QAtomicOpsIiE4loadIiEET_RKNSt3__16atomicIS2_EE
FNDA:0,_ZN10QAtomicOpsIiE3refIiEEbRNSt3__16atomicIT_EE
FNDA:0,_ZN10QAtomicOpsIiE5derefIiEEbRNSt3__16atomicIT_EE
FNF:3
FNH:0
DA:227,0
DA:265,0
DA:271,0
LF:3
LH:0
end_of_record
SF:/Applications/Developpement/Qt/5.11.0/clang_64/lib/QtCore.framework/Headers/qbasicatomic.h
FN:91,_ZNK19QBasicAtomicIntegerIiE4loadEv
FN:102,_ZN19QBasicAtomicIntegerIiE3refEv
FN:103,_ZN19QBasicAtomicIntegerIiE5derefEv
FNDA:0,_ZNK19QBasicAtomicIntegerIiE4loadEv
FNDA:0,_ZN19QBasicAtomicIntegerIiE3refEv
FNDA:0,_ZN19QBasicAtomicIntegerIiE5derefEv
FNF:3
FNH:0
DA:91,0
DA:102,0
DA:103,0
LF:3
LH:0
end_of_record
SF:/Applications/Developpement/Qt/5.11.0/clang_64/lib/QtCore.framework/Headers/qbytearray.h
FN:469,_ZN10QByteArrayD2Ev
FN:469,_ZN10QByteArrayD1Ev
FN:498,_ZN10QByteArrayC2ERKS_
FN:498,_ZN10QByteArrayC1ERKS_
FNDA:0,_ZN10QByteArrayD1Ev
FNDA:0,_ZN10QByteArrayD2Ev
FNDA:0,_ZN10QByteArrayC1ERKS_
FNDA:0,_ZN10QByteArrayC2ERKS_
FNF:4
FNH:0
DA:469,0
DA:498,0
DA:499,0
LF:3
LH:0
end_of_record
SF:/Applications/Developpement/Qt/5.11.0/clang_64/lib/QtCore.framework/Headers/qrefcount.h
FN:54,_ZN9QtPrivate8RefCount3refEv
FN:65,_ZN9QtPrivate8RefCount5derefEv
FNDA:0,_ZN9QtPrivate8RefCount3refEv
FNDA:0,_ZN9QtPrivate8RefCount5derefEv
FNF:2
FNH:0
DA:55,0
DA:57,0
DA:58,0
DA:60,0
DA:61,0
DA:62,0
DA:63,0
DA:66,0
DA:68,0
DA:69,0
DA:71,0
DA:72,0
DA:73,0
DA:74,0
LF:14
LH:0
end_of_record
SF:/Applications/Developpement/Qt/5.11.0/clang_64/lib/QtCore.framework/Headers/qscopedpointer.h
FN:116,_ZNK14QScopedPointerI11QObjectData21QScopedPointerDeleterIS0_EEptEv
FNDA:0,_ZNK14QScopedPointerI11QObjectData21QScopedPointerDeleterIS0_EEptEv
FNF:1
FNH:0
DA:118,0
LF:1
LH:0
end_of_record
SF:/Applications/Developpement/Qt/5.11.0/clang_64/lib/QtCore.framework/Headers/qstring.h
FN:952,_ZN7QStringC2ERKS_
FN:952,_ZN7QStringC1ERKS_
FN:1130,_ZN7QStringD1Ev
FN:1130,_ZN7QStringD2Ev
FNDA:0,_ZN7QStringC1ERKS_
FNDA:0,_ZN7QStringC2ERKS_
FNDA:0,_ZN7QStringD1Ev
FNDA:0,_ZN7QStringD2Ev
FNF:4
FNH:0
DA:952,0
DA:953,0
DA:1130,0
LF:3
LH:0
end_of_record
SF:/Library/Developer/CommandLineTools/usr/include/c++/v1/atomic
FN:927,_ZNKSt3__113__atomic_baseIiLb0EE4loadENS_12memory_orderE
FN:1019,_ZNSt3__113__atomic_baseIiLb1EE9fetch_addEiNS_12memory_orderE
FN:1025,_ZNSt3__113__atomic_baseIiLb1EE9fetch_subEiNS_12memory_orderE
FN:1057,_ZNSt3__113__atomic_baseIiLb1EEppEv
FN:1061,_ZNSt3__113__atomic_baseIiLb1EEmmEv
FNDA:0,_ZNKSt3__113__atomic_baseIiLb0EE4loadENS_12memory_orderE
FNDA:0,_ZNSt3__113__atomic_baseIiLb1EE9fetch_addEiNS_12memory_orderE
FNDA:0,_ZNSt3__113__atomic_baseIiLb1EE9fetch_subEiNS_12memory_orderE
FNDA:0,_ZNSt3__113__atomic_baseIiLb1EEppEv
FNDA:0,_ZNSt3__113__atomic_baseIiLb1EEmmEv
FNF:5
FNH:0
DA:929,0
DA:1020,0
DA:1026,0
DA:1057,0
DA:1061,0
LF:5
LH:0
end_of_record
SF:/tmp/build-tests-Desktop_Qt_5_11_0_clang_64bit-Debug/tst_testserialportcontroller/moc_SerialPortController.cpp
FN:92,_ZN20SerialPortController18qt_static_metacallEP7QObjectN11QMetaObject4CallEiPPv
FN:146,_ZNK20SerialPortController10metaObjectEv
FN:151,_ZN20SerialPortController11qt_metacastEPKc
FN:159,_ZN20SerialPortController11qt_metacallEN11QMetaObject4CallEiPPv
FN:177,_ZN20SerialPortController10portOpenedEv
FN:183,_ZN20SerialPortController13portNotOpenedEv
FN:189,_ZN20SerialPortController12dataReceivedE10QByteArray
FN:196,_ZN20SerialPortController11dataWrittenEx
FNDA:0,_ZN20SerialPortController18qt_static_metacallEP7QObjectN11QMetaObject4CallEiPPv
FNDA:0,_ZNK20SerialPortController10metaObjectEv
FNDA:0,_ZN20SerialPortController11qt_metacastEPKc
FNDA:0,_ZN20SerialPortController11qt_metacallEN11QMetaObject4CallEiPPv
FNDA:0,_ZN20SerialPortController10portOpenedEv
FNDA:0,_ZN20SerialPortController13portNotOpenedEv
FNDA:0,_ZN20SerialPortController12dataReceivedE10QByteArray
FNDA:0,_ZN20SerialPortController11dataWrittenEx
FNF:8
FNH:0
DA:94,0
DA:95,0
DA:97,0
DA:98,0
DA:99,0
DA:100,0
DA:101,0
DA:102,0
DA:103,0
DA:104,0
DA:106,0
DA:107,0
DA:108,0
DA:111,0
DA:112,0
DA:113,0
DA:118,0
DA:119,0
DA:120,0
DA:125,0
DA:126,0
DA:127,0
DA:132,0
DA:133,0
DA:134,0
DA:137,0
DA:138,0
DA:148,0
DA:153,0
DA:154,0
DA:155,0
DA:156,0
DA:157,0
DA:161,0
DA:162,0
DA:163,0
DA:164,0
DA:165,0
DA:166,0
DA:167,0
DA:168,0
DA:169,0
DA:170,0
DA:171,0
DA:172,0
DA:173,0
DA:174,0
DA:179,0
DA:180,0
DA:185,0
DA:186,0
DA:191,0
DA:192,0
DA:193,0
DA:198,0
DA:199,0
DA:200,0
LF:57
LH:0
end_of_record
TN:
SF:/Applications/Developpement/Qt/5.11.0/clang_64/lib/QtCore.framework/Headers/qarraydata.h
FN:57,_ZN10QArrayData4dataEv
FN:206,_ZN15QTypedArrayDataItE4dataEv
FN:206,_ZN15QTypedArrayDataIcE4dataEv
FN:234,_ZN15QTypedArrayDataIcE10deallocateEP10QArrayData
FN:234,_ZN15QTypedArrayDataItE10deallocateEP10QArrayData
FNDA:10,_ZN10QArrayData4dataEv
FNDA:10,_ZN15QTypedArrayDataItE4dataEv
FNDA:0,_ZN15QTypedArrayDataIcE4dataEv
FNDA:0,_ZN15QTypedArrayDataItE10deallocateEP10QArrayData
FNDA:0,_ZN15QTypedArrayDataIcE10deallocateEP10QArrayData
FNF:5
FNH:2
DA:59,40
DA:61,10
DA:206,10
DA:237,0
DA:238,0
LF:5
LH:3
end_of_record
SF:/Applications/Developpement/Qt/5.11.0/clang_64/lib/QtCore.framework/Headers/qatomic.h
FN:60,_ZN14QAtomicIntegerIiEC2Ei
FN:162,_ZN10QAtomicIntC1Ei
FN:162,_ZN10QAtomicIntC2Ei
FNDA:0,_ZN14QAtomicIntegerIiEC2Ei
FNDA:0,_ZN10QAtomicIntC1Ei
FNDA:0,_ZN10QAtomicIntC2Ei
FNF:3
FNH:0
DA:60,0
DA:162,0
LF:2
LH:0
end_of_record
SF:/Applications/Developpement/Qt/5.11.0/clang_64/lib/QtCore.framework/Headers/qatomic_cxx11.h
FN:225,_ZN10QAtomicOpsIiE4loadIiEET_RKNSt3__16atomicIS2_EE
FN:263,_ZN10QAtomicOpsIiE3refIiEEbRNSt3__16atomicIT_EE
FN:269,_ZN10QAtomicOpsIiE5derefIiEEbRNSt3__16atomicIT_EE
FNDA:0,_ZN10QAtomicOpsIiE4loadIiEET_RKNSt3__16atomicIS2_EE
FNDA:0,_ZN10QAtomicOpsIiE3refIiEEbRNSt3__16atomicIT_EE
FNDA:0,_ZN10QAtomicOpsIiE5derefIiEEbRNSt3__16atomicIT_EE
FNF:3
FNH:0
DA:227,0
DA:265,0
DA:271,0
LF:3
LH:0
end_of_record
SF:/Applications/Developpement/Qt/5.11.0/clang_64/lib/QtCore.framework/Headers/qbasicatomic.h
FN:91,_ZNK19QBasicAtomicIntegerIiE4loadEv
FN:102,_ZN19QBasicAtomicIntegerIiE3refEv
FN:103,_ZN19QBasicAtomicIntegerIiE5derefEv
FN:209,_ZN19QBasicAtomicIntegerIiEC2Ei
FNDA:0,_ZNK19QBasicAtomicIntegerIiE4loadEv
FNDA:0,_ZN19QBasicAtomicIntegerIiE3refEv
FNDA:0,_ZN19QBasicAtomicIntegerIiE5derefEv
FNDA:0,_ZN19QBasicAtomicIntegerIiEC2Ei
FNF:4
FNH:0
DA:91,0
DA:102,0
DA:103,0
DA:209,0
LF:4
LH:0
end_of_record
SF:/Applications/Developpement/Qt/5.11.0/clang_64/lib/QtCore.framework/Headers/qbytearray.h
FN:76,_Z8qstrnlenPKcj
FN:265,_ZNO10QByteArray7toUpperEv
FN:469,_ZN10QByteArrayD1Ev
FN:469,_ZN10QByteArrayD2Ev
FN:470,_ZNK10QByteArray4sizeEv
FN:492,_ZNK10QByteArray9constDataEv
FN:498,_ZN10QByteArrayC2ERKS_
FN:498,_ZN10QByteArrayC1ERKS_
FNDA:0,_Z8qstrnlenPKcj
FNDA:0,_ZNO10QByteArray7toUpperEv
FNDA:0,_ZN10QByteArrayD1Ev
FNDA:0,_ZN10QByteArrayD2Ev
FNDA:0,_ZNK10QByteArray4sizeEv
FNDA:0,_ZNK10QByteArray9constDataEv
FNDA:0,_ZN10QByteArrayC1ERKS_
FNDA:0,_ZN10QByteArrayC2ERKS_
FNF:8
FNH:0
DA:78,0
DA:79,0
DA:80,0
DA:81,0
DA:82,0
DA:83,0
DA:266,0
DA:469,0
DA:471,0
DA:493,0
DA:498,0
DA:499,0
LF:12
LH:0
end_of_record
SF:/Applications/Developpement/Qt/5.11.0/clang_64/lib/QtCore.framework/Headers/qdebug.h
FN:116,_ZN6QDebugC1ERKS_
FN:116,_ZN6QDebugC2ERKS_
FN:125,_ZN6QDebug10maybeSpaceEv
FN:145,_ZN6QDebuglsEi
FN:153,_ZN6QDebuglsEPKc
FN:155,_ZN6QDebuglsERK7QString
FN:160,_ZN6QDebuglsERK10QByteArray
FN:372,_ZlsIN11QSerialPort15SerialPortErrorEENSt3__19enable_ifIXsr9QtPrivate13IsQEnumHelperIT_EE5ValueE6QDebugE4typeES5_S4_
FNDA:0,_ZN6QDebugC1ERKS_
FNDA:0,_ZN6QDebugC2ERKS_
FNDA:33,_ZN6QDebug10maybeSpaceEv
FNDA:1,_ZN6QDebuglsEi
FNDA:22,_ZN6QDebuglsEPKc
FNDA:10,_ZN6QDebuglsERK7QString
FNDA:0,_ZN6QDebuglsERK10QByteArray
FNDA:0,_ZlsIN11QSerialPort15SerialPortErrorEENSt3__19enable_ifIXsr9QtPrivate13IsQEnumHelperIT_EE5ValueE6QDebugE4typeES5_S4_
FNF:8
FNH:4
DA:116,0
DA:125,99
DA:145,1
DA:153,44
DA:155,10
DA:160,0
DA:374,0
DA:375,0
DA:376,0
LF:9
LH:4
end_of_record
SF:/Applications/Developpement/Qt/5.11.0/clang_64/lib/QtCore.framework/Headers/qflags.h
FN:120,_ZN6QFlagsIN11QSerialPort9DirectionEEC2ES1_
FN:120,_ZN6QFlagsIN11QSerialPort9DirectionEEC1ES1_
FN:120,_ZN6QFlagsIN9QIODevice12OpenModeFlagEEC2ES1_
FN:120,_ZN6QFlagsIN9QIODevice12OpenModeFlagEEC1ES1_
FNDA:0,_ZN6QFlagsIN9QIODevice12OpenModeFlagEEC1ES1_
FNDA:0,_ZN6QFlagsIN11QSerialPort9DirectionEEC1ES1_
FNDA:0,_ZN6QFlagsIN9QIODevice12OpenModeFlagEEC2ES1_
FNDA:0,_ZN6QFlagsIN11QSerialPort9DirectionEEC2ES1_
FNF:4
FNH:0
DA:120,0
LF:1
LH:0
end_of_record
SF:/Applications/Developpement/Qt/5.11.0/clang_64/lib/QtCore.framework/Headers/qglobal.h
FN:963,_Z8qAsConstI5QListI15QSerialPortInfoEERNSt3__19add_constIT_E4typeERS5_
FN:973,_ZN9QtPrivate17QForeachContainerI5QListI15QSerialPortInfoEED2Ev
FN:973,_ZN9QtPrivate17QForeachContainerI5QListI15QSerialPortInfoEED1Ev
FN:976,_ZN9QtPrivate17QForeachContainerI5QListI15QSerialPortInfoEEC2ERKS3_
FN:976,_ZN9QtPrivate17QForeachContainerI5QListI15QSerialPortInfoEEC1ERKS3_
FN:1002,_ZN9QtPrivate21qMakeForeachContainerIR5QListI15QSerialPortInfoEEENS_17QForeachContainerINSt3__15decayIT_E4typeEEEOS8_
FNDA:0,_Z8qAsConstI5QListI15QSerialPortInfoEERNSt3__19add_constIT_E4typeERS5_
FNDA:0,_ZN9QtPrivate17QForeachContainerI5QListI15QSerialPortInfoEED1Ev
FNDA:0,_ZN9QtPrivate17QForeachContainerI5QListI15QSerialPortInfoEED2Ev
FNDA:0,_ZN9QtPrivate17QForeachContainerI5QListI15QSerialPortInfoEEC1ERKS3_
FNDA:0,_ZN9QtPrivate17QForeachContainerI5QListI15QSerialPortInfoEEC2ERKS3_
FNDA:0,_ZN9QtPrivate21qMakeForeachContainerIR5QListI15QSerialPortInfoEEENS_17QForeachContainerINSt3__15decayIT_E4typeEEEOS8_
FNF:6
FNH:0
DA:963,0
DA:973,0
DA:976,0
DA:998,0
DA:1004,0
LF:5
LH:0
end_of_record
SF:/Applications/Developpement/Qt/5.11.0/clang_64/lib/QtCore.framework/Headers/qiodevice.h
FN:136,_ZN9QIODevice5writeERK10QByteArray
FNDA:0,_ZN9QIODevice5writeERK10QByteArray
FNF:1
FNH:0
DA:137,0
LF:1
LH:0
end_of_record
SF:/Applications/Developpement/Qt/5.11.0/clang_64/lib/QtCore.framework/Headers/qlist.h
FN:75,_ZN19QListSpecialMethodsI15QSerialPortInfoED2Ev
FN:100,_ZN9QListData7disposeEv
FN:113,_ZNK9QListData4sizeEv
FN:116,_ZNK9QListData5beginEv
FN:117,_ZNK9QListData3endEv
FN:142,_ZN5QListI15QSerialPortInfoE4Node1tEv
FN:151,_ZN5QListI7QStringEC2Ev
FN:170,_ZNK5QListI15QSerialPortInfoE4sizeEv
FN:287,_ZN5QListI15QSerialPortInfoE14const_iteratorC1EPNS1_4NodeE
FN:287,_ZN5QListI15QSerialPortInfoE14const_iteratorC2EPNS1_4NodeE
FN:298,_ZNK5QListI15QSerialPortInfoE14const_iteratordeEv
FN:302,_ZNK5QListI15QSerialPortInfoE14const_iteratorneERKS2_
FN:307,_ZN5QListI15QSerialPortInfoE14const_iteratorppEv
FN:323,_ZNK5QListI15QSerialPortInfoE5beginEv
FN:327,_ZNK5QListI15QSerialPortInfoE3endEv
FN:433,_ZN5QListI7QStringE14node_constructEPNS1_4NodeERKS0_
FN:449,_ZN5QListI7QStringE13node_destructEPNS1_4NodeE
FN:456,_ZN5QListI15QSerialPortInfoE9node_copyEPNS1_4NodeES3_S3_
FN:456,_ZN5QListI7QStringE9node_copyEPNS1_4NodeES3_S3_
FN:491,_ZN5QListI7QStringE13node_destructEPNS1_4NodeES3_
FN:491,_ZN5QListI15QSerialPortInfoE13node_destructEPNS1_4NodeES3_
FN:579,_ZN5QListI7QStringE6appendERKS0_
FN:753,_ZN5QListI7QStringE18detach_helper_growEii
FN:806,_ZN5QListI15QSerialPortInfoEC1ERKS1_
FN:806,_ZN5QListI15QSerialPortInfoEC2ERKS1_
FN:824,_ZN5QListI15QSerialPortInfoED2Ev
FN:824,_ZN5QListI7QStringED2Ev
FN:824,_ZN5QListI15QSerialPortInfoED1Ev
FN:863,_ZN5QListI7QStringE7deallocEPN9QListData4DataE
FN:863,_ZN5QListI15QSerialPortInfoE7deallocEPN9QListData4DataE
FNDA:0,_ZN19QListSpecialMethodsI15QSerialPortInfoED2Ev
FNDA:0,_ZN9QListData7disposeEv
FNDA:0,_ZNK9QListData4sizeEv
FNDA:0,_ZNK9QListData5beginEv
FNDA:0,_ZNK9QListData3endEv
FNDA:0,_ZN5QListI15QSerialPortInfoE4Node1tEv
FNDA:1,_ZN5QListI7QStringEC2Ev
FNDA:1,_ZNK5QListI15QSerialPortInfoE4sizeEv
FNDA:0,_ZN5QListI15QSerialPortInfoE14const_iteratorC1EPNS1_4NodeE
FNDA:0,_ZN5QListI15QSerialPortInfoE14const_iteratorC2EPNS1_4NodeE
FNDA:0,_ZNK5QListI15QSerialPortInfoE14const_iteratordeEv
FNDA:0,_ZNK5QListI15QSerialPortInfoE14const_iteratorneERKS2_
FNDA:0,_ZN5QListI15QSerialPortInfoE14const_iteratorppEv
FNDA:0,_ZNK5QListI15QSerialPortInfoE5beginEv
FNDA:0,_ZNK5QListI15QSerialPortInfoE3endEv
FNDA:0,_ZN5QListI7QStringE14node_constructEPNS1_4NodeERKS0_
FNDA:0,_ZN5QListI7QStringE13node_destructEPNS1_4NodeE
FNDA:0,_ZN5QListI7QStringE9node_copyEPNS1_4NodeES3_S3_
FNDA:0,_ZN5QListI15QSerialPortInfoE9node_copyEPNS1_4NodeES3_S3_
FNDA:0,_ZN5QListI7QStringE13node_destructEPNS1_4NodeES3_
FNDA:0,_ZN5QListI15QSerialPortInfoE13node_destructEPNS1_4NodeES3_
FNDA:0,_ZN5QListI7QStringE6appendERKS0_
FNDA:0,_ZN5QListI7QStringE18detach_helper_growEii
FNDA:0,_ZN5QListI15QSerialPortInfoEC1ERKS1_
FNDA:0,_ZN5QListI15QSerialPortInfoEC2ERKS1_
FNDA:0,_ZN5QListI15QSerialPortInfoED1Ev
FNDA:0,_ZN5QListI7QStringED2Ev
FNDA:0,_ZN5QListI15QSerialPortInfoED2Ev
FNDA:0,_ZN5QListI7QStringE7deallocEPN9QListData4DataE
FNDA:0,_ZN5QListI15QSerialPortInfoE7deallocEPN9QListData4DataE
FNF:30
FNH:2
DA:75,0
DA:100,0
DA:113,0
DA:116,0
DA:117,0
DA:143,0
DA:144,0
DA:151,1
DA:170,1
DA:287,0
DA:298,0
DA:302,0
DA:307,0
DA:323,0
DA:327,0
DA:436,0
DA:446,0
DA:452,0
DA:453,0
DA:458,0
DA:461,0
DA:462,0
DA:463,0
DA:464,0
DA:466,0
DA:467,0
DA:468,0
DA:469,0
DA:470,0
DA:474,0
DA:475,0
DA:476,0
DA:477,0
DA:488,0
DA:494,0
DA:496,0
DA:497,0
DA:581,0
DA:582,0
DA:584,0
DA:585,0
DA:586,0
DA:587,0
DA:588,0
DA:589,0
DA:600,0
DA:602,0
DA:603,0
DA:604,0
DA:605,0
DA:606,0
DA:607,0
DA:610,0
DA:755,0
DA:756,0
DA:758,0
DA:759,0
DA:760,0
DA:761,0
DA:762,0
DA:763,0
DA:764,0
DA:766,0
DA:767,0
DA:768,0
DA:769,0
DA:770,0
DA:771,0
DA:772,0
DA:773,0
DA:774,0
DA:776,0
DA:777,0
DA:779,0
DA:780,0
DA:807,0
DA:808,0
DA:809,0
DA:810,0
DA:813,0
DA:814,0
DA:815,0
DA:816,0
DA:817,0
DA:818,0
DA:819,0
DA:820,0
DA:821,0
DA:825,0
DA:826,0
DA:827,0
DA:828,0
DA:865,0
DA:866,0
DA:867,0
DA:868,0
LF:96
LH:2
end_of_record
SF:/Applications/Developpement/Qt/5.11.0/clang_64/lib/QtCore.framework/Headers/qlogging.h
FN:68,_ZN18QMessageLogContextC2EPKciS1_S1_
FN:68,_ZN18QMessageLogContextC1EPKciS1_S1_
FN:91,_ZN14QMessageLoggerC1EPKciS1_
FN:91,_ZN14QMessageLoggerC2EPKciS1_
FNDA:12,_ZN18QMessageLogContextC1EPKciS1_S1_
FNDA:12,_ZN18QMessageLogContextC2EPKciS1_S1_
FNDA:12,_ZN14QMessageLoggerC1EPKciS1_
FNDA:12,_ZN14QMessageLoggerC2EPKciS1_
FNF:4
FNH:4
DA:69,24
DA:92,24
LF:2
LH:2
end_of_record
SF:/Applications/Developpement/Qt/5.11.0/clang_64/lib/QtCore.framework/Headers/qmutex.h
FN:199,_ZN12QMutexLockerC2EP11QBasicMutex
FN:199,_ZN12QMutexLockerC1EP11QBasicMutex
FN:213,_ZN12QMutexLockerD2Ev
FN:213,_ZN12QMutexLockerD1Ev
FN:215,_ZN12QMutexLocker6unlockEv
FN:238,_ZNK12QMutexLocker5mutexEv
FNDA:0,_ZN12QMutexLockerC1EP11QBasicMutex
FNDA:0,_ZN12QMutexLockerC2EP11QBasicMutex
FNDA:0,_ZN12QMutexLockerD1Ev
FNDA:0,_ZN12QMutexLockerD2Ev
FNDA:0,_ZN12QMutexLocker6unlockEv
FNDA:0,_ZNK12QMutexLocker5mutexEv
FNF:6
FNH:0
DA:200,0
DA:201,0
DA:203,0
DA:204,0
DA:206,0
DA:207,0
DA:208,0
DA:209,0
DA:213,0
DA:217,0
DA:218,0
DA:219,0
DA:220,0
DA:221,0
DA:240,0
LF:15
LH:0
end_of_record
SF:/Applications/Developpement/Qt/5.11.0/clang_64/lib/QtCore.framework/Headers/qobject.h
FN:228,_ZN7QObject7connectIM9QIODeviceFvvEM20SerialPortControllerFvvEEEN11QMetaObject10ConnectionEPKN9QtPrivate15FunctionPointerIT_E6ObjectESB_PKNSA_IT0_E6ObjectESG_N2Qt14ConnectionTypeE
FNDA:0,_ZN7QObject7connectIM9QIODeviceFvvEM20SerialPortControllerFvvEEEN11QMetaObject10ConnectionEPKN9QtPrivate15FunctionPointerIT_E6ObjectESB_PKNSA_IT0_E6ObjectESG_N2Qt14ConnectionTypeE
FNF:1
FNH:0
DA:246,0
DA:247,0
DA:248,0
DA:250,0
DA:251,0
DA:252,0
DA:253,0
DA:254,0
DA:255,0
LF:9
LH:0
end_of_record
SF:/Applications/Developpement/Qt/5.11.0/clang_64/lib/QtCore.framework/Headers/qobject_impl.h
FN:73,_ZN9QtPrivate15ConnectionTypesINS_4ListIJEEELb1EE5typesEv
FNDA:0,_ZN9QtPrivate15ConnectionTypesINS_4ListIJEEELb1EE5typesEv
FNF:1
FNH:0
DA:73,0
LF:1
LH:0
end_of_record
SF:/Applications/Developpement/Qt/5.11.0/clang_64/lib/QtCore.framework/Headers/qobjectdefs_impl.h
FN:88,_ZN9QtPrivate16ApplyReturnValueIvEC2EPv
FN:88,_ZN9QtPrivate16ApplyReturnValueIvEC1EPv
FN:133,_ZN9QtPrivate11FunctorCallINS_11IndexesListIJEEENS_4ListIJEEEvM20SerialPortControllerFvvEE4callES7_PS5_PPv
FN:166,_ZN9QtPrivate15FunctionPointerIM20SerialPortControllerFvvEE4callINS_4ListIJEEEvEEvS3_PS1_PPv
FN:369,_ZN9QtPrivate15QSlotObjectBaseC2EPFviPS0_P7QObjectPPvPbE
FN:378,_ZN9QtPrivate15QSlotObjectBaseD2Ev
FN:385,_ZN9QtPrivate11QSlotObjectIM20SerialPortControllerFvvENS_4ListIJEEEvED2Ev
FN:385,_ZN9QtPrivate11QSlotObjectIM20SerialPortControllerFvvENS_4ListIJEEEvED1Ev
FN:389,_ZN9QtPrivate11QSlotObjectIM20SerialPortControllerFvvENS_4ListIJEEEvE4implEiPNS_15QSlotObjectBaseEP7QObjectPPvPb
FN:405,_ZN9QtPrivate11QSlotObjectIM20SerialPortControllerFvvENS_4ListIJEEEvEC2ES3_
FN:405,_ZN9QtPrivate11QSlotObjectIM20SerialPortControllerFvvENS_4ListIJEEEvEC1ES3_
FNDA:0,_ZN9QtPrivate16ApplyReturnValueIvEC1EPv
FNDA:0,_ZN9QtPrivate16ApplyReturnValueIvEC2EPv
FNDA:0,_ZN9QtPrivate11FunctorCallINS_11IndexesListIJEEENS_4ListIJEEEvM20SerialPortControllerFvvEE4callES7_PS5_PPv
FNDA:0,_ZN9QtPrivate15FunctionPointerIM20SerialPortControllerFvvEE4callINS_4ListIJEEEvEEvS3_PS1_PPv
FNDA:0,_ZN9QtPrivate15QSlotObjectBaseC2EPFviPS0_P7QObjectPPvPbE
FNDA:0,_ZN9QtPrivate15QSlotObjectBaseD2Ev
FNDA:0,_ZN9QtPrivate11QSlotObjectIM20SerialPortControllerFvvENS_4ListIJEEEvED1Ev
FNDA:0,_ZN9QtPrivate11QSlotObjectIM20SerialPortControllerFvvENS_4ListIJEEEvED2Ev
FNDA:0,_ZN9QtPrivate11QSlotObjectIM20SerialPortControllerFvvENS_4ListIJEEEvE4implEiPNS_15QSlotObjectBaseEP7QObjectPPvPb
FNDA:0,_ZN9QtPrivate11QSlotObjectIM20SerialPortControllerFvvENS_4ListIJEEEvEC1ES3_
FNDA:0,_ZN9QtPrivate11QSlotObjectIM20SerialPortControllerFvvENS_4ListIJEEEvEC2ES3_
FNF:11
FNH:0
DA:88,0
DA:134,0
DA:135,0
DA:167,0
DA:168,0
DA:369,0
DA:378,0
DA:385,0
DA:391,0
DA:393,0
DA:394,0
DA:396,0
DA:397,0
DA:399,0
DA:400,0
DA:402,0
DA:403,0
DA:405,0
LF:18
LH:0
end_of_record
SF:/Applications/Developpement/Qt/5.11.0/clang_64/lib/QtCore.framework/Headers/qrefcount.h
FN:54,_ZN9QtPrivate8RefCount3refEv
FN:65,_ZN9QtPrivate8RefCount5derefEv
FN:99,_ZNK9QtPrivate8RefCount8isSharedEv
FNDA:0,_ZN9QtPrivate8RefCount3refEv
FNDA:0,_ZN9QtPrivate8RefCount5derefEv
FNDA:0,_ZNK9QtPrivate8RefCount8isSharedEv
FNF:3
FNH:0
DA:55,0
DA:57,0
DA:58,0
DA:60,0
DA:61,0
DA:62,0
DA:63,0
DA:66,0
DA:68,0
DA:69,0
DA:71,0
DA:72,0
DA:73,0
DA:74,0
DA:101,0
DA:102,0
LF:16
LH:0
end_of_record
SF:/Applications/Developpement/Qt/5.11.0/clang_64/lib/QtCore.framework/Headers/qstring.h
FN:567,_ZN7QString8fromUtf8EPKci
FN:693,_ZN7QStringC2EPKc
FN:693,_ZN7QStringC1EPKc
FN:696,_ZN7QStringC1ERK10QByteArray
FN:696,_ZN7QStringC2ERK10QByteArray
FN:928,_ZNK7QString6lengthEv
FN:944,_ZNK7QString9constDataEv
FN:952,_ZN7QStringC1ERKS_
FN:952,_ZN7QStringC2ERKS_
FN:1130,_ZN7QStringD2Ev
FN:1130,_ZN7QStringD1Ev
FNDA:22,_ZN7QString8fromUtf8EPKci
FNDA:0,_ZN7QStringC1EPKc
FNDA:0,_ZN7QStringC2EPKc
FNDA:0,_ZN7QStringC1ERK10QByteArray
FNDA:0,_ZN7QStringC2ERK10QByteArray
FNDA:10,_ZNK7QString6lengthEv
FNDA:10,_ZNK7QString9constDataEv
FNDA:0,_ZN7QStringC1ERKS_
FNDA:0,_ZN7QStringC2ERKS_
FNDA:0,_ZN7QStringD1Ev
FNDA:0,_ZN7QStringD2Ev
FNF:11
FNH:3
DA:569,88
DA:694,0
DA:695,0
DA:697,0
DA:698,0
DA:929,10
DA:945,10
DA:952,0
DA:953,0
DA:1130,0
LF:10
LH:3
end_of_record
SF:/Applications/Developpement/Qt/5.11.0/clang_64/lib/QtCore.framework/Headers/qstringlist.h
FN:69,_ZN19QListSpecialMethodsI7QStringED2Ev
FN:99,_ZN11QStringListD2Ev
FN:99,_ZN11QStringListD1Ev
FN:103,_ZN11QStringListC1Ev
FN:103,_ZN11QStringListC2Ev
FN:125,_ZN11QStringListlsERK7QString
FNDA:0,_ZN19QListSpecialMethodsI7QStringED2Ev
FNDA:0,_ZN11QStringListD1Ev
FNDA:0,_ZN11QStringListD2Ev
FNDA:1,_ZN11QStringListC1Ev
FNDA:1,_ZN11QStringListC2Ev
FNDA:0,_ZN11QStringListlsERK7QString
FNF:6
FNH:2
DA:69,0
DA:99,0
DA:103,2
DA:126,0
LF:4
LH:1
end_of_record
SF:/Applications/Developpement/Qt/5.11.0/clang_64/lib/QtQml.framework/Headers/qqmldebug.h
FN:79,__cxx_global_var_init
FNDA:1,__cxx_global_var_init
FNF:1
FNH:1
DA:79,2
LF:1
LH:1
end_of_record
SF:/Applications/Developpement/Qt/5.11.0/clang_64/lib/QtSerialPort.framework/Headers/qserialport.h
FN:193,_Z14qt_getEnumNameN11QSerialPort15SerialPortErrorE
FN:193,_Z20qt_getEnumMetaObjectN11QSerialPort15SerialPortErrorE
FNDA:0,_Z20qt_getEnumMetaObjectN11QSerialPort15SerialPortErrorE
FNDA:0,_Z14qt_getEnumNameN11QSerialPort15SerialPortErrorE
FNF:2
FNH:0
DA:193,0
LF:1
LH:0
end_of_record
SF:/Library/Developer/CommandLineTools/usr/include/c++/v1/atomic
FN:927,_ZNKSt3__113__atomic_baseIiLb0EE4loadENS_12memory_orderE
FN:985,_ZNSt3__113__atomic_baseIiLb0EEC2Ei
FN:1013,_ZNSt3__113__atomic_baseIiLb1EEC2Ei
FN:1019,_ZNSt3__113__atomic_baseIiLb1EE9fetch_addEiNS_12memory_orderE
FN:1025,_ZNSt3__113__atomic_baseIiLb1EE9fetch_subEiNS_12memory_orderE
FN:1057,_ZNSt3__113__atomic_baseIiLb1EEppEv
FN:1061,_ZNSt3__113__atomic_baseIiLb1EEmmEv
FN:1094,_ZNSt3__16atomicIiEC2Ei
FN:1094,_ZNSt3__16atomicIiEC1Ei
FNDA:0,_ZNKSt3__113__atomic_baseIiLb0EE4loadENS_12memory_orderE
FNDA:0,_ZNSt3__113__atomic_baseIiLb0EEC2Ei
FNDA:0,_ZNSt3__113__atomic_baseIiLb1EEC2Ei
FNDA:0,_ZNSt3__113__atomic_baseIiLb1EE9fetch_addEiNS_12memory_orderE
FNDA:0,_ZNSt3__113__atomic_baseIiLb1EE9fetch_subEiNS_12memory_orderE
FNDA:0,_ZNSt3__113__atomic_baseIiLb1EEppEv
FNDA:0,_ZNSt3__113__atomic_baseIiLb1EEmmEv
FNDA:0,_ZNSt3__16atomicIiEC1Ei
FNDA:0,_ZNSt3__16atomicIiEC2Ei
FNF:9
FNH:0
DA:929,0
DA:985,0
DA:1013,0
DA:1020,0
DA:1026,0
DA:1057,0
DA:1061,0
DA:1094,0
LF:8
LH:0
end_of_record
SF:/Library/Developer/CommandLineTools/usr/include/c++/v1/type_traits
FN:2299,_ZNSt3__17forwardIR5QListI15QSerialPortInfoEEEOT_RNS_16remove_referenceIS5_E4typeE
FNDA:0,_ZNSt3__17forwardIR5QListI15QSerialPortInfoEEEOT_RNS_16remove_referenceIS5_E4typeE
FNF:1
FNH:0
DA:2301,0
LF:1
LH:0
end_of_record
SF:/Users/tristan/Documents/Sources/BurgerQuiz/controllers/SerialPortController.cpp
FN:9,_ZN20SerialPortControllerC1EP7QObject
FN:9,_ZN20SerialPortControllerC2EP7QObject
FN:13,_ZN20SerialPortControllerD0Ev
FN:13,_ZN20SerialPortControllerD2Ev
FN:13,_ZN20SerialPortControllerD1Ev
FN:17,_ZN20SerialPortController14availablePortsEv
FN:40,_ZN20SerialPortController16internalOpenPortE7QString
FN:66,_ZN20SerialPortController23internalWriteDataOnPortE10QByteArray
FN:85,_ZN20SerialPortController9closePortEv
FN:93,__cxx_global_var_init.20
FN:94,_ZN20SerialPortController11onReadyReadEv
FNDA:0,_ZN20SerialPortControllerC2EP7QObject
FNDA:0,_ZN20SerialPortControllerC1EP7QObject
FNDA:0,_ZN20SerialPortControllerD2Ev
FNDA:0,_ZN20SerialPortControllerD1Ev
FNDA:0,_ZN20SerialPortControllerD0Ev
FNDA:1,_ZN20SerialPortController14availablePortsEv
FNDA:0,_ZN20SerialPortController16internalOpenPortE7QString
FNDA:0,_ZN20SerialPortController23internalWriteDataOnPortE10QByteArray
FNDA:0,_ZN20SerialPortController9closePortEv
FNDA:1,__cxx_global_var_init.20
FNDA:0,_ZN20SerialPortController11onReadyReadEv
FNF:11
FNH:2
DA:10,0
DA:11,0
DA:14,0
DA:15,0
DA:19,3
DA:20,1
DA:21,5
DA:23,1
DA:24,126
DA:26,30
DA:28,30
DA:29,70
DA:30,10
DA:33,0
DA:34,0
DA:35,20
DA:37,1
DA:38,2
DA:42,0
DA:44,0
DA:45,0
DA:46,0
DA:47,0
DA:50,0
DA:52,0
DA:53,0
DA:54,0
DA:55,0
DA:56,0
DA:57,0
DA:58,0
DA:59,0
DA:60,0
DA:61,0
DA:62,0
DA:64,0
DA:68,0
DA:69,0
DA:70,0
DA:73,0
DA:74,0
DA:75,0
DA:76,0
DA:77,0
DA:78,0
DA:79,0
DA:80,0
DA:83,0
DA:87,0
DA:88,0
DA:89,0
DA:90,0
DA:91,0
DA:93,2
DA:97,0
DA:99,0
DA:100,0
DA:101,0
DA:102,0
DA:103,0
DA:104,0
LF:61
LH:13
end_of_record
SF:/Users/tristan/Documents/Sources/BurgerQuiz/helpers/DebugHelper.hpp
FN:16,_ZN11DebugHelper17byteArrayToStringE10QByteArray
FNDA:0,_ZN11DebugHelper17byteArrayToStringE10QByteArray
FNF:1
FNH:0
DA:17,0
DA:18,0
LF:2
LH:0
end_of_record
TN:
SF:/Applications/Developpement/Qt/5.11.0/clang_64/lib/QtCore.framework/Headers/qarraydata.h
FN:57,_ZN10QArrayData4dataEv
FN:123,_ZN10QArrayData10sharedNullEv
FN:206,_ZN15QTypedArrayDataIcE4dataEv
FN:206,_ZN15QTypedArrayDataItE4dataEv
FN:234,_ZN15QTypedArrayDataItE10deallocateEP10QArrayData
FN:234,_ZN15QTypedArrayDataIcE10deallocateEP10QArrayData
FN:255,_ZN15QTypedArrayDataIcE10sharedNullEv
FN:255,_ZN15QTypedArrayDataItE10sharedNullEv
FNDA:12,_ZN10QArrayData4dataEv
FNDA:6,_ZN10QArrayData10sharedNullEv
FNDA:2,_ZN15QTypedArrayDataIcE4dataEv
FNDA:10,_ZN15QTypedArrayDataItE4dataEv
FNDA:5,_ZN15QTypedArrayDataItE10deallocateEP10QArrayData
FNDA:2,_ZN15QTypedArrayDataIcE10deallocateEP10QArrayData
FNDA:1,_ZN15QTypedArrayDataIcE10sharedNullEv
FNDA:5,_ZN15QTypedArrayDataItE10sharedNullEv
FNF:8
FNH:8
DA:59,48
DA:61,12
DA:123,12
DA:206,12
DA:237,7
DA:238,7
DA:258,12
LF:7
LH:7
end_of_record
SF:/Applications/Developpement/Qt/5.11.0/clang_64/lib/QtCore.framework/Headers/qatomic_cxx11.h
FN:225,_ZN10QAtomicOpsIiE4loadIiEET_RKNSt3__16atomicIS2_EE
FN:263,_ZN10QAtomicOpsIiE3refIiEEbRNSt3__16atomicIT_EE
FN:269,_ZN10QAtomicOpsIiE5derefIiEEbRNSt3__16atomicIT_EE
FNDA:10,_ZN10QAtomicOpsIiE4loadIiEET_RKNSt3__16atomicIS2_EE
FNDA:1,_ZN10QAtomicOpsIiE3refIiEEbRNSt3__16atomicIT_EE
FNDA:8,_ZN10QAtomicOpsIiE5derefIiEEbRNSt3__16atomicIT_EE
FNF:3
FNH:3
DA:227,10
DA:265,1
DA:271,8
LF:3
LH:3
end_of_record
SF:/Applications/Developpement/Qt/5.11.0/clang_64/lib/QtCore.framework/Headers/qbasicatomic.h
FN:91,_ZNK19QBasicAtomicIntegerIiE4loadEv
FN:102,_ZN19QBasicAtomicIntegerIiE3refEv
FN:103,_ZN19QBasicAtomicIntegerIiE5derefEv
FNDA:10,_ZNK19QBasicAtomicIntegerIiE4loadEv
FNDA:1,_ZN19QBasicAtomicIntegerIiE3refEv
FNDA:8,_ZN19QBasicAtomicIntegerIiE5derefEv
FNF:3
FNH:3
DA:91,10
DA:102,2
DA:103,8
LF:3
LH:3
end_of_record
SF:/Applications/Developpement/Qt/5.11.0/clang_64/lib/QtCore.framework/Headers/qbytearray.h
FN:76,_Z8qstrnlenPKcj
FN:265,_ZNO10QByteArray7toUpperEv
FN:468,_ZN10QByteArrayC1Ev
FN:468,_ZN10QByteArrayC2Ev
FN:469,_ZN10QByteArrayD1Ev
FN:469,_ZN10QByteArrayD2Ev
FN:470,_ZNK10QByteArray4sizeEv
FN:492,_ZNK10QByteArray9constDataEv
FN:498,_ZN10QByteArrayC1ERKS_
FN:498,_ZN10QByteArrayC2ERKS_
FNDA:1,_Z8qstrnlenPKcj
FNDA:1,_ZNO10QByteArray7toUpperEv
FNDA:1,_ZN10QByteArrayC1Ev
FNDA:1,_ZN10QByteArrayC2Ev
FNDA:4,_ZN10QByteArrayD1Ev
FNDA:4,_ZN10QByteArrayD2Ev
FNDA:1,_ZNK10QByteArray4sizeEv
FNDA:2,_ZNK10QByteArray9constDataEv
FNDA:1,_ZN10QByteArrayC1ERKS_
FNDA:1,_ZN10QByteArrayC2ERKS_
FNF:10
FNH:10
DA:78,1
DA:79,1
DA:80,35
DA:81,8
DA:82,1
DA:83,1
DA:266,1
DA:468,2
DA:469,16
DA:471,1
DA:493,2
DA:498,1
DA:499,2
LF:13
LH:13
end_of_record
SF:/Applications/Developpement/Qt/5.11.0/clang_64/lib/QtCore.framework/Headers/qrefcount.h
FN:54,_ZN9QtPrivate8RefCount3refEv
FN:65,_ZN9QtPrivate8RefCount5derefEv
FNDA:1,_ZN9QtPrivate8RefCount3refEv
FNDA:9,_ZN9QtPrivate8RefCount5derefEv
FNF:2
FNH:2
DA:55,1
DA:57,1
DA:58,0
DA:60,1
DA:61,1
DA:62,1
DA:63,1
DA:66,9
DA:68,9
DA:69,0
DA:71,9
DA:72,1
DA:73,8
DA:74,9
LF:14
LH:12
end_of_record
SF:/Applications/Developpement/Qt/5.11.0/clang_64/lib/QtCore.framework/Headers/qscopedpointer.h
FN:116,_ZNK14QScopedPointerI11QObjectData21QScopedPointerDeleterIS0_EEptEv
FNDA:10,_ZNK14QScopedPointerI11QObjectData21QScopedPointerDeleterIS0_EEptEv
FNF:1
FNH:1
DA:118,10
LF:1
LH:1
end_of_record
SF:/Applications/Developpement/Qt/5.11.0/clang_64/lib/QtCore.framework/Headers/qstring.h
FN:239,_ZNK7QString4sizeEv
FN:693,_ZN7QStringC2EPKc
FN:693,_ZN7QStringC1EPKc
FN:696,_ZN7QStringC2ERK10QByteArray
FN:696,_ZN7QStringC1ERK10QByteArray
FN:816,_ZNK7QString6isNullEv
FN:940,_ZNK7QString4dataEv
FN:944,_ZNK7QString9constDataEv
FN:1130,_ZN7QStringD2Ev
FN:1130,_ZN7QStringD1Ev
FN:1232,_ZNK7QStringeqEPKc
FNDA:10,_ZNK7QString4sizeEv
FNDA:4,_ZN7QStringC1EPKc
FNDA:4,_ZN7QStringC2EPKc
FNDA:1,_ZN7QStringC1ERK10QByteArray
FNDA:1,_ZN7QStringC2ERK10QByteArray
FNDA:5,_ZNK7QString6isNullEv
FNDA:5,_ZNK7QString4dataEv
FNDA:5,_ZNK7QString9constDataEv
FNDA:5,_ZN7QStringD1Ev
FNDA:5,_ZN7QStringD2Ev
FNDA:5,_ZNK7QStringeqEPKc
FNF:11
FNH:11
DA:239,10
DA:694,12
DA:695,8
DA:697,1
DA:698,2
DA:816,5
DA:941,5
DA:945,5
DA:1130,25
DA:1233,5
LF:10
LH:10
end_of_record
SF:/Applications/Developpement/Qt/5.11.0/clang_64/lib/QtCore.framework/Headers/qstringview.h
FN:166,_ZN11QStringView10castHelperI5QCharEEPKDsPKT_
FN:178,_ZN11QStringViewC2I5QCharLb1EEEPKT_x
FN:178,_ZN11QStringViewC1I5QCharLb1EEEPKT_x
FN:207,_ZN11QStringViewC1I7QStringLb1EEERKT_
FNDA:5,_ZN11QStringView10castHelperI5QCharEEPKDsPKT_
FNDA:5,_ZN11QStringViewC1I5QCharLb1EEEPKT_x
FNDA:5,_ZN11QStringViewC2I5QCharLb1EEEPKT_x
FNDA:5,_ZN11QStringViewC1I7QStringLb1EEERKT_
FNF:4
FNH:4
DA:167,5
DA:179,25
DA:180,10
DA:208,35
LF:4
LH:4
end_of_record
SF:/Applications/Developpement/Qt/5.11.0/clang_64/lib/QtQml.framework/Headers/qqmldebug.h
FN:79,__cxx_global_var_init
FNDA:1,__cxx_global_var_init
FNF:1
FNH:1
DA:79,2
LF:1
LH:1
end_of_record
SF:/Applications/Developpement/Qt/5.11.0/clang_64/lib/QtTest.framework/Headers/qtest.h
FN:68,_ZN5QTest8toStringI11QStringViewEEPcRKT_
FN:73,_ZN5QTest8toStringI7QStringEEPcRKT_
FNDA:5,_ZN5QTest8toStringI11QStringViewEEPcRKT_
FNDA:5,_ZN5QTest8toStringI7QStringEEPcRKT_
FNF:2
FNH:2
DA:70,5
DA:75,5
LF:2
LH:2
end_of_record
SF:/Applications/Developpement/Qt/5.11.0/clang_64/lib/QtTest.framework/Headers/qtestcase.h
FN:394,_ZN5QTest8qCompareI7QStringA8_cEEbRKT_RKT0_PKcSA_SA_i
FN:394,_ZN5QTest8qCompareI7QStringA9_cEEbRKT_RKT0_PKcSA_SA_i
FN:394,_ZN5QTest8qCompareI7QStringA5_cEEbRKT_RKT0_PKcSA_SA_i
FNDA:3,_ZN5QTest8qCompareI7QStringA9_cEEbRKT_RKT0_PKcSA_SA_i
FNDA:1,_ZN5QTest8qCompareI7QStringA5_cEEbRKT_RKT0_PKcSA_SA_i
FNDA:1,_ZN5QTest8qCompareI7QStringA8_cEEbRKT_RKT0_PKcSA_SA_i
FNF:3
FNH:3
DA:397,10
DA:398,5
LF:2
LH:2
end_of_record
SF:/Library/Developer/CommandLineTools/usr/include/c++/v1/atomic
FN:927,_ZNKSt3__113__atomic_baseIiLb0EE4loadENS_12memory_orderE
FN:1019,_ZNSt3__113__atomic_baseIiLb1EE9fetch_addEiNS_12memory_orderE
FN:1025,_ZNSt3__113__atomic_baseIiLb1EE9fetch_subEiNS_12memory_orderE
FN:1057,_ZNSt3__113__atomic_baseIiLb1EEppEv
FN:1061,_ZNSt3__113__atomic_baseIiLb1EEmmEv
FNDA:10,_ZNKSt3__113__atomic_baseIiLb0EE4loadENS_12memory_orderE
FNDA:1,_ZNSt3__113__atomic_baseIiLb1EE9fetch_addEiNS_12memory_orderE
FNDA:8,_ZNSt3__113__atomic_baseIiLb1EE9fetch_subEiNS_12memory_orderE
FNDA:1,_ZNSt3__113__atomic_baseIiLb1EEppEv
FNDA:8,_ZNSt3__113__atomic_baseIiLb1EEmmEv
FNF:5
FNH:5
DA:929,30
DA:1020,3
DA:1026,24
DA:1057,1
DA:1061,8
LF:5
LH:5
end_of_record
SF:/Users/tristan/Documents/Sources/BurgerQuiz/helpers/DebugHelper.hpp
FN:16,_ZN11DebugHelper17byteArrayToStringE10QByteArray
FN:23,_ZN11DebugHelper12teamToStringEN6Burger4TeamE
FNDA:1,_ZN11DebugHelper17byteArrayToStringE10QByteArray
FNDA:4,_ZN11DebugHelper12teamToStringEN6Burger4TeamE
FNF:2
FNH:2
DA:17,4
DA:18,0
DA:24,4
DA:25,1
DA:26,1
DA:27,1
DA:30,1
DA:31,4
LF:8
LH:7
end_of_record
SF:/Users/tristan/Documents/Sources/BurgerQuiz/tests/tst_testdebughelper/tst_testdebughelper.cpp
FN:21,_ZN15TestDebugHelperC1Ev
FN:21,_ZN15TestDebugHelperC2Ev
FN:26,_ZN15TestDebugHelperD1Ev
FN:26,_ZN15TestDebugHelperD0Ev
FN:26,_ZN15TestDebugHelperD2Ev
FN:31,_ZN15TestDebugHelper26test_caseByteArrayToStringEv
FN:38,_ZN15TestDebugHelper21test_caseTeamToStringEv
FN:46,main
FNDA:1,_ZN15TestDebugHelperC2Ev
FNDA:1,_ZN15TestDebugHelperC1Ev
FNDA:1,_ZN15TestDebugHelperD2Ev
FNDA:1,_ZN15TestDebugHelperD1Ev
FNDA:0,_ZN15TestDebugHelperD0Ev
FNDA:1,_ZN15TestDebugHelper26test_caseByteArrayToStringEv
FNDA:1,_ZN15TestDebugHelper21test_caseTeamToStringEv
FNDA:1,main
FNF:8
FNH:7
DA:21,1
DA:22,3
DA:24,2
DA:27,1
DA:29,2
DA:33,1
DA:34,4
DA:35,6
DA:36,3
DA:40,4
DA:41,4
DA:42,4
DA:43,4
DA:44,1
DA:46,3
LF:15
LH:15
end_of_record
SF:/tmp/build-tests-Desktop_Qt_5_11_0_clang_64bit-Debug/tst_testdebughelper/tst_testdebughelper.moc
FN:68,_ZN15TestDebugHelper18qt_static_metacallEP7QObjectN11QMetaObject4CallEiPPv
FN:88,_ZNK15TestDebugHelper10metaObjectEv
FN:93,_ZN15TestDebugHelper11qt_metacastEPKc
FN:101,_ZN15TestDebugHelper11qt_metacallEN11QMetaObject4CallEiPPv
FNDA:2,_ZN15TestDebugHelper18qt_static_metacallEP7QObjectN11QMetaObject4CallEiPPv
FNDA:10,_ZNK15TestDebugHelper10metaObjectEv
FNDA:0,_ZN15TestDebugHelper11qt_metacastEPKc
FNDA:0,_ZN15TestDebugHelper11qt_metacallEN11QMetaObject4CallEiPPv
FNF:4
FNH:2
DA:70,2
DA:71,2
DA:73,2
DA:74,1
DA:75,1
DA:77,0
DA:78,2
DA:80,2
DA:90,30
DA:95,0
DA:96,0
DA:97,0
DA:98,0
DA:99,0
DA:103,0
DA:104,0
DA:105,0
DA:106,0
DA:107,0
DA:108,0
DA:109,0
DA:110,0
DA:111,0
DA:112,0
DA:113,0
DA:114,0
DA:115,0
DA:116,0
LF:28
LH:8
end_of_record
TN:
SF:/Applications/Developpement/Qt/5.11.0/clang_64/lib/QtCore.framework/Headers/qarraydata.h
FN:57,_ZN10QArrayData4dataEv
FN:123,_ZN10QArrayData10sharedNullEv
FN:206,_ZN15QTypedArrayDataIcE4dataEv
FN:206,_ZN15QTypedArrayDataItE4dataEv
FN:234,_ZN15QTypedArrayDataItE10deallocateEP10QArrayData
FN:234,_ZN15QTypedArrayDataIcE10deallocateEP10QArrayData
FN:255,_ZN15QTypedArrayDataIcE10sharedNullEv
FN:255,_ZN15QTypedArrayDataItE10sharedNullEv
FNDA:0,_ZN10QArrayData4dataEv
FNDA:0,_ZN10QArrayData10sharedNullEv
FNDA:0,_ZN15QTypedArrayDataItE4dataEv
FNDA:0,_ZN15QTypedArrayDataIcE4dataEv
FNDA:0,_ZN15QTypedArrayDataIcE10deallocateEP10QArrayData
FNDA:0,_ZN15QTypedArrayDataItE10deallocateEP10QArrayData
FNDA:0,_ZN15QTypedArrayDataIcE10sharedNullEv
FNDA:0,_ZN15QTypedArrayDataItE10sharedNullEv
FNF:8
FNH:0
DA:59,0
DA:61,0
DA:123,0
DA:206,0
DA:237,0
DA:238,0
DA:258,0
LF:7
LH:0
end_of_record
SF:/Applications/Developpement/Qt/5.11.0/clang_64/lib/QtCore.framework/Headers/qatomic.h
FN:60,_ZN14QAtomicIntegerIiEC2Ei
FN:162,_ZN10QAtomicIntC2Ei
FN:162,_ZN10QAtomicIntC1Ei
FNDA:0,_ZN14QAtomicIntegerIiEC2Ei
FNDA:0,_ZN10QAtomicIntC1Ei
FNDA:0,_ZN10QAtomicIntC2Ei
FNF:3
FNH:0
DA:60,0
DA:162,0
LF:2
LH:0
end_of_record
SF:/Applications/Developpement/Qt/5.11.0/clang_64/lib/QtCore.framework/Headers/qatomic_cxx11.h
FN:225,_ZN10QAtomicOpsIiE4loadIiEET_RKNSt3__16atomicIS2_EE
FN:263,_ZN10QAtomicOpsIiE3refIiEEbRNSt3__16atomicIT_EE
FN:269,_ZN10QAtomicOpsIiE5derefIiEEbRNSt3__16atomicIT_EE
FNDA:0,_ZN10QAtomicOpsIiE4loadIiEET_RKNSt3__16atomicIS2_EE
FNDA:0,_ZN10QAtomicOpsIiE3refIiEEbRNSt3__16atomicIT_EE
FNDA:0,_ZN10QAtomicOpsIiE5derefIiEEbRNSt3__16atomicIT_EE
FNF:3
FNH:0
DA:227,0
DA:265,0
DA:271,0
LF:3
LH:0
end_of_record
SF:/Applications/Developpement/Qt/5.11.0/clang_64/lib/QtCore.framework/Headers/qbasicatomic.h
FN:91,_ZNK19QBasicAtomicIntegerIiE4loadEv
FN:102,_ZN19QBasicAtomicIntegerIiE3refEv
FN:103,_ZN19QBasicAtomicIntegerIiE5derefEv
FN:209,_ZN19QBasicAtomicIntegerIiEC2Ei
FNDA:0,_ZNK19QBasicAtomicIntegerIiE4loadEv
FNDA:0,_ZN19QBasicAtomicIntegerIiE3refEv
FNDA:0,_ZN19QBasicAtomicIntegerIiE5derefEv
FNDA:0,_ZN19QBasicAtomicIntegerIiEC2Ei
FNF:4
FNH:0
DA:91,0
DA:102,0
DA:103,0
DA:209,0
LF:4
LH:0
end_of_record
SF:/Applications/Developpement/Qt/5.11.0/clang_64/lib/QtCore.framework/Headers/qbytearray.h
FN:76,_Z8qstrnlenPKcj
FN:265,_ZNO10QByteArray7toUpperEv
FN:468,_ZN10QByteArrayC1Ev
FN:468,_ZN10QByteArrayC2Ev
FN:469,_ZN10QByteArrayD2Ev
FN:469,_ZN10QByteArrayD1Ev
FN:470,_ZNK10QByteArray4sizeEv
FN:473,_ZNK10QByteArray2atEi
FN:490,_ZNK10QByteArray4dataEv
FN:492,_ZNK10QByteArray9constDataEv
FN:498,_ZN10QByteArrayC1ERKS_
FN:498,_ZN10QByteArrayC2ERKS_
FN:529,_ZN8QByteRefC1ER10QByteArrayi
FN:529,_ZN8QByteRefC2ER10QByteArrayi
FN:533,_ZNK8QByteRefcvcEv
FN:555,_ZN10QByteArrayixEi
FN:599,_ZNK10QByteArray8containsERKS_
FNDA:0,_Z8qstrnlenPKcj
FNDA:0,_ZNO10QByteArray7toUpperEv
FNDA:0,_ZN10QByteArrayC1Ev
FNDA:0,_ZN10QByteArrayC2Ev
FNDA:0,_ZN10QByteArrayD1Ev
FNDA:0,_ZN10QByteArrayD2Ev
FNDA:0,_ZNK10QByteArray4sizeEv
FNDA:0,_ZNK10QByteArray2atEi
FNDA:0,_ZNK10QByteArray4dataEv
FNDA:0,_ZNK10QByteArray9constDataEv
FNDA:0,_ZN10QByteArrayC1ERKS_
FNDA:0,_ZN10QByteArrayC2ERKS_
FNDA:0,_ZN8QByteRefC1ER10QByteArrayi
FNDA:0,_ZN8QByteRefC2ER10QByteArrayi
FNDA:0,_ZNK8QByteRefcvcEv
FNDA:0,_ZN10QByteArrayixEi
FNDA:0,_ZNK10QByteArray8containsERKS_
FNF:17
FNH:0
DA:78,0
DA:79,0
DA:80,0
DA:81,0
DA:82,0
DA:83,0
DA:266,0
DA:468,0
DA:469,0
DA:471,0
DA:474,0
DA:491,0
DA:493,0
DA:498,0
DA:499,0
DA:530,0
DA:534,0
DA:556,0
DA:600,0
LF:19
LH:0
end_of_record
SF:/Applications/Developpement/Qt/5.11.0/clang_64/lib/QtCore.framework/Headers/qchar.h
FN:53,_ZN11QLatin1CharC2Ec
FN:53,_ZN11QLatin1CharC1Ec
FN:55,_ZNK11QLatin1Char7unicodeEv
FN:88,_ZN5QCharC2E11QLatin1Char
FN:88,_ZN5QCharC1E11QLatin1Char
FNDA:0,_ZN11QLatin1CharC1Ec
FNDA:0,_ZN11QLatin1CharC2Ec
FNDA:0,_ZNK11QLatin1Char7unicodeEv
FNDA:0,_ZN5QCharC1E11QLatin1Char
FNDA:0,_ZN5QCharC2E11QLatin1Char
FNF:5
FNH:0
DA:53,0
DA:55,0
DA:88,0
LF:3
LH:0
end_of_record
SF:/Applications/Developpement/Qt/5.11.0/clang_64/lib/QtCore.framework/Headers/qdebug.h
FN:125,_ZN6QDebug10maybeSpaceEv
FN:145,_ZN6QDebuglsEi
FN:153,_ZN6QDebuglsEPKc
FN:155,_ZN6QDebuglsERK7QString
FN:160,_ZN6QDebuglsERK10QByteArray
FNDA:0,_ZN6QDebug10maybeSpaceEv
FNDA:0,_ZN6QDebuglsEi
FNDA:0,_ZN6QDebuglsEPKc
FNDA:0,_ZN6QDebuglsERK7QString
FNDA:0,_ZN6QDebuglsERK10QByteArray
FNF:5
FNH:0
DA:125,0
DA:145,0
DA:153,0
DA:155,0
DA:160,0
LF:5
LH:0
end_of_record
SF:/Applications/Developpement/Qt/5.11.0/clang_64/lib/QtCore.framework/Headers/qglobal.h
FN:911,_Z5qSwapIPN9QListData4DataEEvRT_S4_
FNDA:0,_Z5qSwapIPN9QListData4DataEEvRT_S4_
FNF:1
FNH:0
DA:915,0
DA:916,0
LF:2
LH:0
end_of_record
SF:/Applications/Developpement/Qt/5.11.0/clang_64/lib/QtCore.framework/Headers/qlist.h
FN:100,_ZN9QListData7disposeEv
FN:114,_ZNK9QListData7isEmptyEv
FN:116,_ZNK9QListData5beginEv
FN:117,_ZNK9QListData3endEv
FN:142,_ZN5QListI7QStringE4Node1tEv
FN:151,_ZN5QListI7QStringEC2Ev
FN:156,_ZN5QListI7QStringEC2EOS1_
FN:156,_ZN5QListI7QStringEC1EOS1_
FN:158,_ZN5QListI7QStringEaSEOS1_
FN:161,_ZN5QListI7QStringE4swapERS1_
FN:172,_ZN5QListI7QStringE6detachEv
FN:195,_ZNK5QListI7QStringE7isEmptyEv
FN:235,_ZN5QListI7QStringE8iteratorC1EPNS1_4NodeE
FN:235,_ZN5QListI7QStringE8iteratorC2EPNS1_4NodeE
FN:239,_ZN5QListI7QStringE8iteratorC2ERKS2_
FN:239,_ZN5QListI7QStringE8iteratorC1ERKS2_
FN:241,_ZNK5QListI7QStringE8iteratordeEv
FN:266,_ZN5QListI7QStringE8iteratormmEv
FN:268,_ZN5QListI7QStringE8iteratorpLEx
FN:287,_ZN5QListI7QStringE14const_iteratorC1EPNS1_4NodeE
FN:287,_ZN5QListI7QStringE14const_iteratorC2EPNS1_4NodeE
FN:322,_ZN5QListI7QStringE5beginEv
FN:325,_ZNK5QListI7QStringE10constBeginEv
FN:326,_ZN5QListI7QStringE3endEv
FN:329,_ZNK5QListI7QStringE8constEndEv
FN:348,_ZN5QListI7QStringE4lastEv
FN:352,_ZN5QListI7QStringE10removeLastEv
FN:412,_ZNK5QListI7QStringE15isValidIteratorERKNS1_8iteratorE
FN:449,_ZN5QListI7QStringE13node_destructEPNS1_4NodeE
FN:456,_ZN5QListI7QStringE9node_copyEPNS1_4NodeES3_S3_
FN:491,_ZN5QListI7QStringE13node_destructEPNS1_4NodeES3_
FN:528,_ZN5QListI7QStringE5eraseENS1_8iteratorE
FN:564,_ZN5QListI7QStringE8takeLastEv
FN:783,_ZN5QListI7QStringE13detach_helperEi
FN:800,_ZN5QListI7QStringE13detach_helperEv
FN:824,_ZN5QListI7QStringED1Ev
FN:824,_ZN5QListI7QStringED2Ev
FN:863,_ZN5QListI7QStringE7deallocEPN9QListData4DataE
FNDA:0,_ZN9QListData7disposeEv
FNDA:0,_ZNK9QListData7isEmptyEv
FNDA:0,_ZNK9QListData5beginEv
FNDA:0,_ZNK9QListData3endEv
FNDA:0,_ZN5QListI7QStringE4Node1tEv
FNDA:0,_ZN5QListI7QStringEC2Ev
FNDA:0,_ZN5QListI7QStringEC1EOS1_
FNDA:0,_ZN5QListI7QStringEC2EOS1_
FNDA:0,_ZN5QListI7QStringEaSEOS1_
FNDA:0,_ZN5QListI7QStringE4swapERS1_
FNDA:0,_ZN5QListI7QStringE6detachEv
FNDA:0,_ZNK5QListI7QStringE7isEmptyEv
FNDA:0,_ZN5QListI7QStringE8iteratorC1EPNS1_4NodeE
FNDA:0,_ZN5QListI7QStringE8iteratorC2EPNS1_4NodeE
FNDA:0,_ZN5QListI7QStringE8iteratorC1ERKS2_
FNDA:0,_ZN5QListI7QStringE8iteratorC2ERKS2_
FNDA:0,_ZNK5QListI7QStringE8iteratordeEv
FNDA:0,_ZN5QListI7QStringE8iteratormmEv
FNDA:0,_ZN5QListI7QStringE8iteratorpLEx
FNDA:0,_ZN5QListI7QStringE14const_iteratorC1EPNS1_4NodeE
FNDA:0,_ZN5QListI7QStringE14const_iteratorC2EPNS1_4NodeE
FNDA:0,_ZN5QListI7QStringE5beginEv
FNDA:0,_ZNK5QListI7QStringE10constBeginEv
FNDA:0,_ZN5QListI7QStringE3endEv
FNDA:0,_ZNK5QListI7QStringE8constEndEv
FNDA:0,_ZN5QListI7QStringE4lastEv
FNDA:0,_ZN5QListI7QStringE10removeLastEv
FNDA:0,_ZNK5QListI7QStringE15isValidIteratorERKNS1_8iteratorE
FNDA:0,_ZN5QListI7QStringE13node_destructEPNS1_4NodeE
FNDA:0,_ZN5QListI7QStringE9node_copyEPNS1_4NodeES3_S3_
FNDA:0,_ZN5QListI7QStringE13node_destructEPNS1_4NodeES3_
FNDA:0,_ZN5QListI7QStringE5eraseENS1_8iteratorE
FNDA:0,_ZN5QListI7QStringE8takeLastEv
FNDA:0,_ZN5QListI7QStringE13detach_helperEi
FNDA:0,_ZN5QListI7QStringE13detach_helperEv
FNDA:0,_ZN5QListI7QStringED2Ev
FNDA:0,_ZN5QListI7QStringED1Ev
FNDA:0,_ZN5QListI7QStringE7deallocEPN9QListData4DataE
FNF:38
FNH:0
DA:100,0
DA:114,0
DA:116,0
DA:117,0
DA:143,0
DA:144,0
DA:151,0
DA:157,0
DA:159,0
DA:161,0
DA:172,0
DA:195,0
DA:235,0
DA:239,0
DA:241,0
DA:266,0
DA:268,0
DA:287,0
DA:322,0
DA:325,0
DA:326,0
DA:329,0
DA:348,0
DA:352,0
DA:414,0
DA:452,0
DA:453,0
DA:458,0
DA:474,0
DA:475,0
DA:476,0
DA:477,0
DA:488,0
DA:496,0
DA:497,0
DA:530,0
DA:531,0
DA:532,0
DA:533,0
DA:534,0
DA:535,0
DA:536,0
DA:537,0
DA:565,0
DA:785,0
DA:786,0
DA:788,0
DA:789,0
DA:790,0
DA:791,0
DA:792,0
DA:793,0
DA:795,0
DA:796,0
DA:797,0
DA:802,0
DA:803,0
DA:825,0
DA:826,0
DA:827,0
DA:828,0
DA:865,0
DA:866,0
DA:867,0
DA:868,0
LF:65
LH:0
end_of_record
SF:/Applications/Developpement/Qt/5.11.0/clang_64/lib/QtCore.framework/Headers/qlogging.h
FN:68,_ZN18QMessageLogContextC2EPKciS1_S1_
FN:68,_ZN18QMessageLogContextC1EPKciS1_S1_
FN:91,_ZN14QMessageLoggerC2EPKciS1_
FN:91,_ZN14QMessageLoggerC1EPKciS1_
FNDA:0,_ZN18QMessageLogContextC1EPKciS1_S1_
FNDA:0,_ZN18QMessageLogContextC2EPKciS1_S1_
FNDA:0,_ZN14QMessageLoggerC1EPKciS1_
FNDA:0,_ZN14QMessageLoggerC2EPKciS1_
FNF:4
FNH:0
DA:69,0
DA:92,0
LF:2
LH:0
end_of_record
SF:/Applications/Developpement/Qt/5.11.0/clang_64/lib/QtCore.framework/Headers/qmetaobject.h
FN:172,_ZN11QMetaMethod10fromSignalIM16BurgerControllerFvvEEES_T_
FNDA:0,_ZN11QMetaMethod10fromSignalIM16BurgerControllerFvvEEES_T_
FNF:1
FNH:0
DA:177,0
DA:178,0
LF:2
LH:0
end_of_record
SF:/Applications/Developpement/Qt/5.11.0/clang_64/lib/QtCore.framework/Headers/qobject.h
FN:228,_ZN7QObject7connectIM20SerialPortControllerFvvEM16BurgerControllerFvvEEEN11QMetaObject10ConnectionEPKN9QtPrivate15FunctionPointerIT_E6ObjectESB_PKNSA_IT0_E6ObjectESG_N2Qt14ConnectionTypeE
FN:228,_ZN7QObject7connectIM6QTimerFvNS1_14QPrivateSignalEEM16BurgerControllerFvvEEEN11QMetaObject10ConnectionEPKN9QtPrivate15FunctionPointerIT_E6ObjectESC_PKNSB_IT0_E6ObjectESH_N2Qt14ConnectionTypeE
FN:228,_ZN7QObject7connectIM20SerialPortControllerFvxEM16BurgerControllerFvyEEEN11QMetaObject10ConnectionEPKN9QtPrivate15FunctionPointerIT_E6ObjectESB_PKNSA_IT0_E6ObjectESG_N2Qt14ConnectionTypeE
FN:228,_ZN7QObject7connectIM20SerialPortControllerFv10QByteArrayEM16BurgerControllerFvS2_EEEN11QMetaObject10ConnectionEPKN9QtPrivate15FunctionPointerIT_E6ObjectESC_PKNSB_IT0_E6ObjectESH_N2Qt14ConnectionTypeE
FN:228,_ZN7QObject7connectIM14QAbstractStateFvNS1_14QPrivateSignalEEM16BurgerControllerFvvEEEN11QMetaObject10ConnectionEPKN9QtPrivate15FunctionPointerIT_E6ObjectESC_PKNSB_IT0_E6ObjectESH_N2Qt14ConnectionTypeE
FN:499,_Z12qobject_castIP20SerialPortControllerET_P7QObject
FNDA:0,_ZN7QObject7connectIM6QTimerFvNS1_14QPrivateSignalEEM16BurgerControllerFvvEEEN11QMetaObject10ConnectionEPKN9QtPrivate15FunctionPointerIT_E6ObjectESC_PKNSB_IT0_E6ObjectESH_N2Qt14ConnectionTypeE
FNDA:0,_ZN7QObject7connectIM14QAbstractStateFvNS1_14QPrivateSignalEEM16BurgerControllerFvvEEEN11QMetaObject10ConnectionEPKN9QtPrivate15FunctionPointerIT_E6ObjectESC_PKNSB_IT0_E6ObjectESH_N2Qt14ConnectionTypeE
FNDA:0,_ZN7QObject7connectIM20SerialPortControllerFvvEM16BurgerControllerFvvEEEN11QMetaObject10ConnectionEPKN9QtPrivate15FunctionPointerIT_E6ObjectESB_PKNSA_IT0_E6ObjectESG_N2Qt14ConnectionTypeE
FNDA:0,_ZN7QObject7connectIM20SerialPortControllerFvxEM16BurgerControllerFvyEEEN11QMetaObject10ConnectionEPKN9QtPrivate15FunctionPointerIT_E6ObjectESB_PKNSA_IT0_E6ObjectESG_N2Qt14ConnectionTypeE
FNDA:0,_ZN7QObject7connectIM20SerialPortControllerFv10QByteArrayEM16BurgerControllerFvS2_EEEN11QMetaObject10ConnectionEPKN9QtPrivate15FunctionPointerIT_E6ObjectESC_PKNSB_IT0_E6ObjectESH_N2Qt14ConnectionTypeE
FNDA:0,_Z12qobject_castIP20SerialPortControllerET_P7QObject
FNF:6
FNH:0
DA:246,0
DA:247,0
DA:248,0
DA:250,0
DA:251,0
DA:252,0
DA:253,0
DA:254,0
DA:255,0
DA:504,0
LF:10
LH:0
end_of_record
SF:/Applications/Developpement/Qt/5.11.0/clang_64/lib/QtCore.framework/Headers/qobject_impl.h
FN:71,_ZN9QtPrivate15ConnectionTypesINS_4ListIJN14QAbstractState14QPrivateSignalEEEELb0EE5typesEv
FN:71,_ZN9QtPrivate15ConnectionTypesINS_4ListIJN6QTimer14QPrivateSignalEEEELb0EE5typesEv
FN:73,_ZN9QtPrivate15ConnectionTypesINS_4ListIJEEELb1EE5typesEv
FN:75,_ZN9QtPrivate15ConnectionTypesINS_4ListIJ10QByteArrayEEELb1EE5typesEv
FN:75,_ZN9QtPrivate15ConnectionTypesINS_4ListIJxEEELb1EE5typesEv
FNDA:0,_ZN9QtPrivate15ConnectionTypesINS_4ListIJN6QTimer14QPrivateSignalEEEELb0EE5typesEv
FNDA:0,_ZN9QtPrivate15ConnectionTypesINS_4ListIJN14QAbstractState14QPrivateSignalEEEELb0EE5typesEv
FNDA:0,_ZN9QtPrivate15ConnectionTypesINS_4ListIJEEELb1EE5typesEv
FNDA:0,_ZN9QtPrivate15ConnectionTypesINS_4ListIJxEEELb1EE5typesEv
FNDA:0,_ZN9QtPrivate15ConnectionTypesINS_4ListIJ10QByteArrayEEELb1EE5typesEv
FNF:5
FNH:0
DA:71,0
DA:73,0
DA:75,0
LF:3
LH:0
end_of_record
SF:/Applications/Developpement/Qt/5.11.0/clang_64/lib/QtCore.framework/Headers/qobjectdefs.h
FN:292,_ZN16QGenericArgumentC2EPKcPKv
FN:292,_ZN16QGenericArgumentC1EPKcPKv
FN:305,_ZN22QGenericReturnArgumentC1EPKcPv
FN:305,_ZN22QGenericReturnArgumentC2EPKcPv
FN:314,_ZN9QArgumentI10QByteArrayEC1EPKcRKS0_
FN:314,_ZN9QArgumentI10QByteArrayEC2EPKcRKS0_
FN:314,_ZN9QArgumentI7QStringEC1EPKcRKS0_
FN:314,_ZN9QArgumentI7QStringEC2EPKcRKS0_
FN:431,_ZN11QMetaObject12invokeMethodEP7QObjectPKcN2Qt14ConnectionTypeE16QGenericArgumentS6_S6_S6_S6_S6_S6_S6_S6_S6_
FNDA:0,_ZN16QGenericArgumentC1EPKcPKv
FNDA:0,_ZN16QGenericArgumentC2EPKcPKv
FNDA:0,_ZN22QGenericReturnArgumentC1EPKcPv
FNDA:0,_ZN22QGenericReturnArgumentC2EPKcPv
FNDA:0,_ZN9QArgumentI7QStringEC1EPKcRKS0_
FNDA:0,_ZN9QArgumentI7QStringEC2EPKcRKS0_
FNDA:0,_ZN9QArgumentI10QByteArrayEC1EPKcRKS0_
FNDA:0,_ZN9QArgumentI10QByteArrayEC2EPKcRKS0_
FNDA:0,_ZN11QMetaObject12invokeMethodEP7QObjectPKcN2Qt14ConnectionTypeE16QGenericArgumentS6_S6_S6_S6_S6_S6_S6_S6_S6_
FNF:9
FNH:0
DA:293,0
DA:306,0
DA:307,0
DA:315,0
DA:316,0
DA:444,0
DA:445,0
LF:7
LH:0
end_of_record
SF:/Applications/Developpement/Qt/5.11.0/clang_64/lib/QtCore.framework/Headers/qobjectdefs_impl.h
FN:88,_ZN9QtPrivate16ApplyReturnValueIvEC2EPv
FN:88,_ZN9QtPrivate16ApplyReturnValueIvEC1EPv
FN:133,_ZN9QtPrivate11FunctorCallINS_11IndexesListIJEEENS_4ListIJEEEvM16BurgerControllerFvvEE4callES7_PS5_PPv
FN:133,_ZN9QtPrivate11FunctorCallINS_11IndexesListIJLi0EEEENS_4ListIJ10QByteArrayEEEvM16BurgerControllerFvS4_EE4callES8_PS6_PPv
FN:133,_ZN9QtPrivate11FunctorCallINS_11IndexesListIJLi0EEEENS_4ListIJxEEEvM16BurgerControllerFvyEE4callES7_PS5_PPv
FN:166,_ZN9QtPrivate15FunctionPointerIM16BurgerControllerFv10QByteArrayEE4callINS_4ListIJS2_EEEvEEvS4_PS1_PPv
FN:166,_ZN9QtPrivate15FunctionPointerIM16BurgerControllerFvyEE4callINS_4ListIJxEEEvEEvS3_PS1_PPv
FN:166,_ZN9QtPrivate15FunctionPointerIM16BurgerControllerFvvEE4callINS_4ListIJEEEvEEvS3_PS1_PPv
FN:369,_ZN9QtPrivate15QSlotObjectBaseC2EPFviPS0_P7QObjectPPvPbE
FN:378,_ZN9QtPrivate15QSlotObjectBaseD2Ev
FN:385,_ZN9QtPrivate11QSlotObjectIM16BurgerControllerFvyENS_4ListIJxEEEvED2Ev
FN:385,_ZN9QtPrivate11QSlotObjectIM16BurgerControllerFvvENS_4ListIJEEEvED2Ev
FN:385,_ZN9QtPrivate11QSlotObjectIM16BurgerControllerFv10QByteArrayENS_4ListIJS2_EEEvED1Ev
FN:385,_ZN9QtPrivate11QSlotObjectIM16BurgerControllerFv10QByteArrayENS_4ListIJS2_EEEvED2Ev
FN:385,_ZN9QtPrivate11QSlotObjectIM16BurgerControllerFvyENS_4ListIJxEEEvED1Ev
FN:385,_ZN9QtPrivate11QSlotObjectIM16BurgerControllerFvvENS_4ListIJEEEvED1Ev
FN:389,_ZN9QtPrivate11QSlotObjectIM16BurgerControllerFvvENS_4ListIJEEEvE4implEiPNS_15QSlotObjectBaseEP7QObjectPPvPb
FN:389,_ZN9QtPrivate11QSlotObjectIM16BurgerControllerFv10QByteArrayENS_4ListIJS2_EEEvE4implEiPNS_15QSlotObjectBaseEP7QObjectPPvPb
FN:389,_ZN9QtPrivate11QSlotObjectIM16BurgerControllerFvyENS_4ListIJxEEEvE4implEiPNS_15QSlotObjectBaseEP7QObjectPPvPb
FN:405,_ZN9QtPrivate11QSlotObjectIM16BurgerControllerFvyENS_4ListIJxEEEvEC1ES3_
FN:405,_ZN9QtPrivate11QSlotObjectIM16BurgerControllerFvyENS_4ListIJxEEEvEC2ES3_
FN:405,_ZN9QtPrivate11QSlotObjectIM16BurgerControllerFv10QByteArrayENS_4ListIJS2_EEEvEC2ES4_
FN:405,_ZN9QtPrivate11QSlotObjectIM16BurgerControllerFvvENS_4ListIJEEEvEC1ES3_
FN:405,_ZN9QtPrivate11QSlotObjectIM16BurgerControllerFv10QByteArrayENS_4ListIJS2_EEEvEC1ES4_
FN:405,_ZN9QtPrivate11QSlotObjectIM16BurgerControllerFvvENS_4ListIJEEEvEC2ES3_
FNDA:0,_ZN9QtPrivate16ApplyReturnValueIvEC1EPv
FNDA:0,_ZN9QtPrivate16ApplyReturnValueIvEC2EPv
FNDA:0,_ZN9QtPrivate11FunctorCallINS_11IndexesListIJEEENS_4ListIJEEEvM16BurgerControllerFvvEE4callES7_PS5_PPv
FNDA:0,_ZN9QtPrivate11FunctorCallINS_11IndexesListIJLi0EEEENS_4ListIJxEEEvM16BurgerControllerFvyEE4callES7_PS5_PPv
FNDA:0,_ZN9QtPrivate11FunctorCallINS_11IndexesListIJLi0EEEENS_4ListIJ10QByteArrayEEEvM16BurgerControllerFvS4_EE4callES8_PS6_PPv
FNDA:0,_ZN9QtPrivate15FunctionPointerIM16BurgerControllerFvvEE4callINS_4ListIJEEEvEEvS3_PS1_PPv
FNDA:0,_ZN9QtPrivate15FunctionPointerIM16BurgerControllerFvyEE4callINS_4ListIJxEEEvEEvS3_PS1_PPv
FNDA:0,_ZN9QtPrivate15FunctionPointerIM16BurgerControllerFv10QByteArrayEE4callINS_4ListIJS2_EEEvEEvS4_PS1_PPv
FNDA:0,_ZN9QtPrivate15QSlotObjectBaseC2EPFviPS0_P7QObjectPPvPbE
FNDA:0,_ZN9QtPrivate15QSlotObjectBaseD2Ev
FNDA:0,_ZN9QtPrivate11QSlotObjectIM16BurgerControllerFvvENS_4ListIJEEEvED1Ev
FNDA:0,_ZN9QtPrivate11QSlotObjectIM16BurgerControllerFvvENS_4ListIJEEEvED2Ev
FNDA:0,_ZN9QtPrivate11QSlotObjectIM16BurgerControllerFvyENS_4ListIJxEEEvED1Ev
FNDA:0,_ZN9QtPrivate11QSlotObjectIM16BurgerControllerFvyENS_4ListIJxEEEvED2Ev
FNDA:0,_ZN9QtPrivate11QSlotObjectIM16BurgerControllerFv10QByteArrayENS_4ListIJS2_EEEvED1Ev
FNDA:0,_ZN9QtPrivate11QSlotObjectIM16BurgerControllerFv10QByteArrayENS_4ListIJS2_EEEvED2Ev
FNDA:0,_ZN9QtPrivate11QSlotObjectIM16BurgerControllerFvvENS_4ListIJEEEvE4implEiPNS_15QSlotObjectBaseEP7QObjectPPvPb
FNDA:0,_ZN9QtPrivate11QSlotObjectIM16BurgerControllerFvyENS_4ListIJxEEEvE4implEiPNS_15QSlotObjectBaseEP7QObjectPPvPb
FNDA:0,_ZN9QtPrivate11QSlotObjectIM16BurgerControllerFv10QByteArrayENS_4ListIJS2_EEEvE4implEiPNS_15QSlotObjectBaseEP7QObjectPPvPb
FNDA:0,_ZN9QtPrivate11QSlotObjectIM16BurgerControllerFvvENS_4ListIJEEEvEC1ES3_
FNDA:0,_ZN9QtPrivate11QSlotObjectIM16BurgerControllerFvvENS_4ListIJEEEvEC2ES3_
FNDA:0,_ZN9QtPrivate11QSlotObjectIM16BurgerControllerFvyENS_4ListIJxEEEvEC1ES3_
FNDA:0,_ZN9QtPrivate11QSlotObjectIM16BurgerControllerFvyENS_4ListIJxEEEvEC2ES3_
FNDA:0,_ZN9QtPrivate11QSlotObjectIM16BurgerControllerFv10QByteArrayENS_4ListIJS2_EEEvEC1ES4_
FNDA:0,_ZN9QtPrivate11QSlotObjectIM16BurgerControllerFv10QByteArrayENS_4ListIJS2_EEEvEC2ES4_
FNF:25
FNH:0
DA:88,0
DA:134,0
DA:135,0
DA:167,0
DA:168,0
DA:369,0
DA:378,0
DA:385,0
DA:391,0
DA:393,0
DA:394,0
DA:396,0
DA:397,0
DA:399,0
DA:400,0
DA:402,0
DA:403,0
DA:405,0
LF:18
LH:0
end_of_record
SF:/Applications/Developpement/Qt/5.11.0/clang_64/lib/QtCore.framework/Headers/qrefcount.h
FN:54,_ZN9QtPrivate8RefCount3refEv
FN:65,_ZN9QtPrivate8RefCount5derefEv
FN:99,_ZNK9QtPrivate8RefCount8isSharedEv
FNDA:0,_ZN9QtPrivate8RefCount3refEv
FNDA:0,_ZN9QtPrivate8RefCount5derefEv
FNDA:0,_ZNK9QtPrivate8RefCount8isSharedEv
FNF:3
FNH:0
DA:55,0
DA:57,0
DA:58,0
DA:60,0
DA:61,0
DA:62,0
DA:63,0
DA:66,0
DA:68,0
DA:69,0
DA:71,0
DA:72,0
DA:73,0
DA:74,0
DA:101,0
DA:102,0
LF:16
LH:0
end_of_record
SF:/Applications/Developpement/Qt/5.11.0/clang_64/lib/QtCore.framework/Headers/qstate.h
FN:89,_ZN6QState13addTransitionIM16BurgerControllerFvvEEEP17QSignalTransitionPKN9QtPrivate15FunctionPointerIT_E6ObjectES8_P14QAbstractState
FNDA:0,_ZN6QState13addTransitionIM16BurgerControllerFvvEEEP17QSignalTransitionPKN9QtPrivate15FunctionPointerIT_E6ObjectES8_P14QAbstractState
FNF:1
FNH:0
DA:92,0
DA:93,0
DA:94,0
LF:3
LH:0
end_of_record
SF:/Applications/Developpement/Qt/5.11.0/clang_64/lib/QtCore.framework/Headers/qstring.h
FN:234,_ZN7QStringC1EOS_
FN:234,_ZN7QStringC2EOS_
FN:437,_ZNO7QString7trimmedEv
FN:562,_ZN7QString10fromLatin1EPKci
FN:567,_ZN7QString8fromUtf8EPKci
FN:575,_ZN7QString10fromLatin1ERK10QByteArray
FN:577,_ZN7QString8fromUtf8ERK10QByteArray
FN:693,_ZN7QStringC1EPKc
FN:693,_ZN7QStringC2EPKc
FN:696,_ZN7QStringC1ERK10QByteArray
FN:696,_ZN7QStringC2ERK10QByteArray
FN:823,_ZN7QStringC1E14QStringDataPtr
FN:823,_ZN7QStringC2E14QStringDataPtr
FN:928,_ZNK7QString6lengthEv
FN:936,_ZNK7QString7isEmptyEv
FN:944,_ZNK7QString9constDataEv
FN:952,_ZN7QStringC2ERKS_
FN:952,_ZN7QStringC1ERKS_
FN:1129,_ZN7QStringC1Ev
FN:1129,_ZN7QStringC2Ev
FN:1130,_ZN7QStringD2Ev
FN:1130,_ZN7QStringD1Ev
FNDA:0,_ZN7QStringC1EOS_
FNDA:0,_ZN7QStringC2EOS_
FNDA:0,_ZNO7QString7trimmedEv
FNDA:0,_ZN7QString10fromLatin1EPKci
FNDA:0,_ZN7QString8fromUtf8EPKci
FNDA:0,_ZN7QString10fromLatin1ERK10QByteArray
FNDA:0,_ZN7QString8fromUtf8ERK10QByteArray
FNDA:0,_ZN7QStringC1EPKc
FNDA:0,_ZN7QStringC2EPKc
FNDA:0,_ZN7QStringC1ERK10QByteArray
FNDA:0,_ZN7QStringC2ERK10QByteArray
FNDA:0,_ZN7QStringC1E14QStringDataPtr
FNDA:0,_ZN7QStringC2E14QStringDataPtr
FNDA:0,_ZNK7QString6lengthEv
FNDA:0,_ZNK7QString7isEmptyEv
FNDA:0,_ZNK7QString9constDataEv
FNDA:0,_ZN7QStringC1ERKS_
FNDA:0,_ZN7QStringC2ERKS_
FNDA:0,_ZN7QStringC1Ev
FNDA:0,_ZN7QStringC2Ev
FNDA:0,_ZN7QStringD1Ev
FNDA:0,_ZN7QStringD2Ev
FNF:22
FNH:0
DA:234,0
DA:438,0
DA:564,0
DA:565,0
DA:569,0
DA:576,0
DA:578,0
DA:694,0
DA:695,0
DA:697,0
DA:698,0
DA:823,0
DA:929,0
DA:937,0
DA:945,0
DA:952,0
DA:953,0
DA:1129,0
DA:1130,0
LF:19
LH:0
end_of_record
SF:/Applications/Developpement/Qt/5.11.0/clang_64/lib/QtCore.framework/Headers/qstringlist.h
FN:69,_ZN19QListSpecialMethodsI7QStringED2Ev
FN:99,_ZN11QStringListD1Ev
FN:99,_ZN11QStringListD2Ev
FN:99,_ZN11QStringListaSEOS_
FN:103,_ZN11QStringListC1Ev
FN:103,_ZN11QStringListC2Ev
FNDA:0,_ZN19QListSpecialMethodsI7QStringED2Ev
FNDA:0,_ZN11QStringListD1Ev
FNDA:0,_ZN11QStringListaSEOS_
FNDA:0,_ZN11QStringListD2Ev
FNDA:0,_ZN11QStringListC1Ev
FNDA:0,_ZN11QStringListC2Ev
FNF:6
FNH:0
DA:69,0
DA:99,0
DA:103,0
LF:3
LH:0
end_of_record
SF:/Applications/Developpement/Qt/5.11.0/clang_64/lib/QtCore.framework/Headers/qtimer.h
FN:232,_ZN6QTimer13setSingleShotEb
FNDA:0,_ZN6QTimer13setSingleShotEb
FNF:1
FNH:0
DA:232,0
LF:1
LH:0
end_of_record
SF:/Applications/Developpement/Qt/5.11.0/clang_64/lib/QtQml.framework/Headers/qqmldebug.h
FN:79,__cxx_global_var_init
FNDA:1,__cxx_global_var_init
FNF:1
FNH:1
DA:79,2
LF:1
LH:1
end_of_record
SF:/Library/Developer/CommandLineTools/usr/include/c++/v1/atomic
FN:927,_ZNKSt3__113__atomic_baseIiLb0EE4loadENS_12memory_orderE
FN:985,_ZNSt3__113__atomic_baseIiLb0EEC2Ei
FN:1013,_ZNSt3__113__atomic_baseIiLb1EEC2Ei
FN:1019,_ZNSt3__113__atomic_baseIiLb1EE9fetch_addEiNS_12memory_orderE
FN:1025,_ZNSt3__113__atomic_baseIiLb1EE9fetch_subEiNS_12memory_orderE
FN:1057,_ZNSt3__113__atomic_baseIiLb1EEppEv
FN:1061,_ZNSt3__113__atomic_baseIiLb1EEmmEv
FN:1094,_ZNSt3__16atomicIiEC2Ei
FN:1094,_ZNSt3__16atomicIiEC1Ei
FNDA:0,_ZNKSt3__113__atomic_baseIiLb0EE4loadENS_12memory_orderE
FNDA:0,_ZNSt3__113__atomic_baseIiLb0EEC2Ei
FNDA:0,_ZNSt3__113__atomic_baseIiLb1EEC2Ei
FNDA:0,_ZNSt3__113__atomic_baseIiLb1EE9fetch_addEiNS_12memory_orderE
FNDA:0,_ZNSt3__113__atomic_baseIiLb1EE9fetch_subEiNS_12memory_orderE
FNDA:0,_ZNSt3__113__atomic_baseIiLb1EEppEv
FNDA:0,_ZNSt3__113__atomic_baseIiLb1EEmmEv
FNDA:0,_ZNSt3__16atomicIiEC1Ei
FNDA:0,_ZNSt3__16atomicIiEC2Ei
FNF:9
FNH:0
DA:929,0
DA:985,0
DA:1013,0
DA:1020,0
DA:1026,0
DA:1057,0
DA:1061,0
DA:1094,0
LF:8
LH:0
end_of_record
SF:/Library/Developer/CommandLineTools/usr/include/c++/v1/type_traits
FN:2290,_ZNSt3__14moveIRPN9QListData4DataEEEONS_16remove_referenceIT_E4typeEOS6_
FN:2290,_ZNSt3__14moveIR5QListI7QStringEEEONS_16remove_referenceIT_E4typeEOS6_
FN:2290,_ZNSt3__14moveIR7QStringEEONS_16remove_referenceIT_E4typeEOS4_
FN:4589,_ZNSt3__14swapIPN9QListData4DataEEENS_9enable_ifIXaasr21is_move_constructibleIT_EE5valuesr18is_move_assignableIS5_EE5valueEvE4typeERS5_S8_
FNDA:0,_ZNSt3__14moveIR5QListI7QStringEEEONS_16remove_referenceIT_E4typeEOS6_
FNDA:0,_ZNSt3__14moveIRPN9QListData4DataEEEONS_16remove_referenceIT_E4typeEOS6_
FNDA:0,_ZNSt3__14moveIR7QStringEEONS_16remove_referenceIT_E4typeEOS4_
FNDA:0,_ZNSt3__14swapIPN9QListData4DataEEENS_9enable_ifIXaasr21is_move_constructibleIT_EE5valuesr18is_move_assignableIS5_EE5valueEvE4typeERS5_S8_
FNF:4
FNH:0
DA:2293,0
DA:4592,0
DA:4593,0
DA:4594,0
DA:4595,0
LF:5
LH:0
end_of_record
SF:/Users/tristan/Documents/Sources/BurgerQuiz/controllers/BurgerController.cpp
FN:8,_ZN16BurgerControllerC2EP7QObject
FN:8,_ZN16BurgerControllerC1EP7QObject
FN:17,_ZN16BurgerControllerD0Ev
FN:17,_ZN16BurgerControllerD2Ev
FN:17,_ZN16BurgerControllerD1Ev
FN:29,_ZN16BurgerController22initializeStateMachineEv
FN:60,_ZN16BurgerController10findBurgerEv
FN:80,_ZN16BurgerController11tryNextPortEv
FN:93,_ZN16BurgerController12onPortOpenedEv
FN:103,_ZN16BurgerController15onPortNotOpenedEv
FN:109,_ZN16BurgerController13onDataWrittenEy
FN:114,_ZN16BurgerController14onDataReceivedE10QByteArray
FN:162,_ZN16BurgerController18onStateInitializedEv
FN:167,_ZN16BurgerController16onEtatPortOpenedEv
FN:189,_ZN16BurgerController14onEtatPingSentEv
FN:195,_ZN16BurgerController13onPingTimeoutEv
FN:203,_ZN16BurgerController18onEtatPongReceivedEv
FN:212,_ZN16BurgerController10onEtatPretEv
FN:217,_ZN16BurgerController19onEtatButtonPressedEv
FN:222,_ZN16BurgerController15onEtatDesactiveEv
FN:228,_ZN16BurgerController17onEtatSelectionneEv
FN:235,_ZN16BurgerController12onEtatErreurEv
FN:240,_ZN16BurgerController13startBlinkingEv
FN:248,_ZN16BurgerController12stopBlinkingEv
FNDA:0,_ZN16BurgerControllerC2EP7QObject
FNDA:0,_ZN16BurgerControllerC1EP7QObject
FNDA:0,_ZN16BurgerControllerD2Ev
FNDA:0,_ZN16BurgerControllerD1Ev
FNDA:0,_ZN16BurgerControllerD0Ev
FNDA:0,_ZN16BurgerController22initializeStateMachineEv
FNDA:0,_ZN16BurgerController10findBurgerEv
FNDA:0,_ZN16BurgerController11tryNextPortEv
FNDA:0,_ZN16BurgerController12onPortOpenedEv
FNDA:0,_ZN16BurgerController15onPortNotOpenedEv
FNDA:0,_ZN16BurgerController13onDataWrittenEy
FNDA:0,_ZN16BurgerController14onDataReceivedE10QByteArray
FNDA:0,_ZN16BurgerController18onStateInitializedEv
FNDA:0,_ZN16BurgerController16onEtatPortOpenedEv
FNDA:0,_ZN16BurgerController14onEtatPingSentEv
FNDA:0,_ZN16BurgerController13onPingTimeoutEv
FNDA:0,_ZN16BurgerController18onEtatPongReceivedEv
FNDA:0,_ZN16BurgerController10onEtatPretEv
FNDA:0,_ZN16BurgerController19onEtatButtonPressedEv
FNDA:0,_ZN16BurgerController15onEtatDesactiveEv
FNDA:0,_ZN16BurgerController17onEtatSelectionneEv
FNDA:0,_ZN16BurgerController12onEtatErreurEv
FNDA:0,_ZN16BurgerController13startBlinkingEv
FNDA:0,_ZN16BurgerController12stopBlinkingEv
FNF:24
FNH:0
DA:8,0
DA:9,0
DA:10,0
DA:11,0
DA:12,0
DA:15,0
DA:18,0
DA:19,0
DA:20,0
DA:21,0
DA:22,0
DA:23,0
DA:24,0
DA:25,0
DA:26,0
DA:27,0
DA:31,0
DA:32,0
DA:33,0
DA:34,0
DA:35,0
DA:36,0
DA:37,0
DA:38,0
DA:39,0
DA:40,0
DA:42,0
DA:43,0
DA:44,0
DA:45,0
DA:46,0
DA:48,0
DA:49,0
DA:50,0
DA:51,0
DA:52,0
DA:53,0
DA:54,0
DA:55,0
DA:56,0
DA:57,0
DA:58,0
DA:62,0
DA:63,0
DA:64,0
DA:65,0
DA:66,0
DA:67,0
DA:68,0
DA:70,0
DA:71,0
DA:72,0
DA:74,0
DA:76,0
DA:77,0
DA:78,0
DA:81,0
DA:82,0
DA:83,0
DA:86,0
DA:87,0
DA:89,0
DA:90,0
DA:91,0
DA:95,0
DA:96,0
DA:97,0
DA:100,0
DA:101,0
DA:105,0
DA:106,0
DA:107,0
DA:111,0
DA:112,0
DA:122,0
DA:125,0
DA:126,0
DA:127,0
DA:128,0
DA:129,0
DA:130,0
DA:131,0
DA:133,0
DA:134,0
DA:135,0
DA:138,0
DA:140,0
DA:141,0
DA:143,0
DA:147,0
DA:148,0
DA:149,0
DA:152,0
DA:153,0
DA:154,0
DA:155,0
DA:156,0
DA:157,0
DA:159,0
DA:160,0
DA:164,0
DA:165,0
DA:169,0
DA:171,0
DA:172,0
DA:174,0
DA:175,0
DA:177,0
DA:178,0
DA:179,0
DA:183,0
DA:185,0
DA:186,0
DA:187,0
DA:191,0
DA:192,0
DA:193,0
DA:197,0
DA:198,0
DA:199,0
DA:200,0
DA:201,0
DA:205,0
DA:207,0
DA:208,0
DA:209,0
DA:210,0
DA:214,0
DA:215,0
DA:219,0
DA:220,0
DA:224,0
DA:225,0
DA:226,0
DA:230,0
DA:231,0
DA:232,0
DA:233,0
DA:237,0
DA:238,0
DA:242,0
DA:243,0
DA:245,0
DA:246,0
DA:250,0
DA:251,0
DA:252,0
DA:268,0
DA:270,0
LF:149
LH:0
end_of_record
SF:/Users/tristan/Documents/Sources/BurgerQuiz/controllers/BurgerController.h
FN:86,_ZN16BurgerController12debugMessageE7QString
FNDA:0,_ZN16BurgerController12debugMessageE7QString
FNF:1
FNH:0
DA:87,0
DA:88,0
LF:2
LH:0
end_of_record
SF:/Users/tristan/Documents/Sources/BurgerQuiz/controllers/SerialPortController.h
FN:34,_ZNK20SerialPortController8portNameEv
FN:42,_ZN20SerialPortController8openPortE7QString
FN:53,_ZN20SerialPortController15writeDataOnPortE10QByteArray
FNDA:0,_ZNK20SerialPortController8portNameEv
FNDA:0,_ZN20SerialPortController8openPortE7QString
FNDA:0,_ZN20SerialPortController15writeDataOnPortE10QByteArray
FNF:3
FNH:0
DA:34,0
DA:43,0
DA:44,0
DA:54,0
DA:55,0
LF:5
LH:0
end_of_record
SF:/Users/tristan/Documents/Sources/BurgerQuiz/factories/MessageFactory.hpp
FN:16,_ZN14MessageFactory13messageHeaderEv
FN:26,_ZN14MessageFactory18messageTerminationEv
FN:38,_ZN14MessageFactory12getCommandIdENS_7MessageE
FN:47,_ZN14MessageFactory15makePingMessageEv
FN:77,_ZN14MessageFactory14makeLedMessageEN6Burger8LedStateE
FN:104,_ZN14MessageFactory14isMessageValidER10QByteArray
FN:131,_ZN14MessageFactory19messageTypeFromDataER10QByteArray
FNDA:0,_ZN14MessageFactory13messageHeaderEv
FNDA:0,_ZN14MessageFactory18messageTerminationEv
FNDA:0,_ZN14MessageFactory12getCommandIdENS_7MessageE
FNDA:0,_ZN14MessageFactory15makePingMessageEv
FNDA:0,_ZN14MessageFactory14makeLedMessageEN6Burger8LedStateE
FNDA:0,_ZN14MessageFactory14isMessageValidER10QByteArray
FNDA:0,_ZN14MessageFactory19messageTypeFromDataER10QByteArray
FNF:7
FNH:0
DA:18,0
DA:27,0
DA:40,0
DA:49,0
DA:50,0
DA:51,0
DA:52,0
DA:53,0
DA:55,0
DA:56,0
DA:79,0
DA:80,0
DA:81,0
DA:82,0
DA:83,0
DA:84,0
DA:86,0
DA:87,0
DA:106,0
DA:107,0
DA:108,0
DA:111,0
DA:112,0
DA:113,0
DA:116,0
DA:117,0
DA:118,0
DA:121,0
DA:122,0
DA:123,0
DA:128,0
DA:129,0
DA:133,0
DA:134,0
DA:135,0
DA:136,0
DA:137,0
DA:138,0
DA:140,0
DA:141,0
DA:144,0
DA:145,0
LF:42
LH:0
end_of_record
SF:/Users/tristan/Documents/Sources/BurgerQuiz/helpers/DebugHelper.hpp
FN:16,_ZN11DebugHelper17byteArrayToStringE10QByteArray
FN:23,_ZN11DebugHelper12teamToStringEN6Burger4TeamE
FNDA:0,_ZN11DebugHelper17byteArrayToStringE10QByteArray
FNDA:0,_ZN11DebugHelper12teamToStringEN6Burger4TeamE
FNF:2
FNH:0
DA:17,0
DA:18,0
DA:24,0
DA:25,0
DA:26,0
DA:27,0
DA:30,0
DA:31,0
LF:8
LH:0
end_of_record
TN:
SF:/Applications/Developpement/Qt/5.11.0/clang_64/lib/QtCore.framework/Headers/qarraydata.h
FN:57,_ZN10QArrayData4dataEv
FN:206,_ZN15QTypedArrayDataItE4dataEv
FN:234,_ZN15QTypedArrayDataItE10deallocateEP10QArrayData
FNDA:0,_ZN10QArrayData4dataEv
FNDA:0,_ZN15QTypedArrayDataItE4dataEv
FNDA:0,_ZN15QTypedArrayDataItE10deallocateEP10QArrayData
FNF:3
FNH:0
DA:59,0
DA:61,0
DA:206,0
DA:237,0
DA:238,0
LF:5
LH:0
end_of_record
SF:/Applications/Developpement/Qt/5.11.0/clang_64/lib/QtCore.framework/Headers/qatomic.h
FN:60,_ZN14QAtomicIntegerIiEC2Ei
FN:162,_ZN10QAtomicIntC2Ei
FN:162,_ZN10QAtomicIntC1Ei
FNDA:0,_ZN14QAtomicIntegerIiEC2Ei
FNDA:0,_ZN10QAtomicIntC1Ei
FNDA:0,_ZN10QAtomicIntC2Ei
FNF:3
FNH:0
DA:60,0
DA:162,0
LF:2
LH:0
end_of_record
SF:/Applications/Developpement/Qt/5.11.0/clang_64/lib/QtCore.framework/Headers/qatomic_cxx11.h
FN:225,_ZN10QAtomicOpsIiE4loadIiEET_RKNSt3__16atomicIS2_EE
FN:263,_ZN10QAtomicOpsIiE3refIiEEbRNSt3__16atomicIT_EE
FN:269,_ZN10QAtomicOpsIiE5derefIiEEbRNSt3__16atomicIT_EE
FNDA:0,_ZN10QAtomicOpsIiE4loadIiEET_RKNSt3__16atomicIS2_EE
FNDA:0,_ZN10QAtomicOpsIiE3refIiEEbRNSt3__16atomicIT_EE
FNDA:0,_ZN10QAtomicOpsIiE5derefIiEEbRNSt3__16atomicIT_EE
FNF:3
FNH:0
DA:227,0
DA:265,0
DA:271,0
LF:3
LH:0
end_of_record
SF:/Applications/Developpement/Qt/5.11.0/clang_64/lib/QtCore.framework/Headers/qbasicatomic.h
FN:91,_ZNK19QBasicAtomicIntegerIiE4loadEv
FN:102,_ZN19QBasicAtomicIntegerIiE3refEv
FN:103,_ZN19QBasicAtomicIntegerIiE5derefEv
FN:209,_ZN19QBasicAtomicIntegerIiEC2Ei
FNDA:0,_ZNK19QBasicAtomicIntegerIiE4loadEv
FNDA:0,_ZN19QBasicAtomicIntegerIiE3refEv
FNDA:0,_ZN19QBasicAtomicIntegerIiE5derefEv
FNDA:0,_ZN19QBasicAtomicIntegerIiEC2Ei
FNF:4
FNH:0
DA:91,0
DA:102,0
DA:103,0
DA:209,0
LF:4
LH:0
end_of_record
SF:/Applications/Developpement/Qt/5.11.0/clang_64/lib/QtCore.framework/Headers/qdebug.h
FN:125,_ZN6QDebug10maybeSpaceEv
FN:153,_ZN6QDebuglsEPKc
FN:155,_ZN6QDebuglsERK7QString
FNDA:0,_ZN6QDebug10maybeSpaceEv
FNDA:0,_ZN6QDebuglsEPKc
FNDA:0,_ZN6QDebuglsERK7QString
FNF:3
FNH:0
DA:125,0
DA:153,0
DA:155,0
LF:3
LH:0
end_of_record
SF:/Applications/Developpement/Qt/5.11.0/clang_64/lib/QtCore.framework/Headers/qlogging.h
FN:68,_ZN18QMessageLogContextC2EPKciS1_S1_
FN:68,_ZN18QMessageLogContextC1EPKciS1_S1_
FN:91,_ZN14QMessageLoggerC1EPKciS1_
FN:91,_ZN14QMessageLoggerC2EPKciS1_
FNDA:0,_ZN18QMessageLogContextC1EPKciS1_S1_
FNDA:0,_ZN18QMessageLogContextC2EPKciS1_S1_
FNDA:0,_ZN14QMessageLoggerC1EPKciS1_
FNDA:0,_ZN14QMessageLoggerC2EPKciS1_
FNF:4
FNH:0
DA:69,0
DA:92,0
LF:2
LH:0
end_of_record
SF:/Applications/Developpement/Qt/5.11.0/clang_64/lib/QtCore.framework/Headers/qmutex.h
FN:199,_ZN12QMutexLockerC1EP11QBasicMutex
FN:199,_ZN12QMutexLockerC2EP11QBasicMutex
FN:213,_ZN12QMutexLockerD1Ev
FN:213,_ZN12QMutexLockerD2Ev
FN:215,_ZN12QMutexLocker6unlockEv
FN:238,_ZNK12QMutexLocker5mutexEv
FNDA:0,_ZN12QMutexLockerC1EP11QBasicMutex
FNDA:0,_ZN12QMutexLockerC2EP11QBasicMutex
FNDA:0,_ZN12QMutexLockerD1Ev
FNDA:0,_ZN12QMutexLockerD2Ev
FNDA:0,_ZN12QMutexLocker6unlockEv
FNDA:0,_ZNK12QMutexLocker5mutexEv
FNF:6
FNH:0
DA:200,0
DA:201,0
DA:203,0
DA:204,0
DA:206,0
DA:207,0
DA:208,0
DA:209,0
DA:213,0
DA:217,0
DA:218,0
DA:219,0
DA:220,0
DA:221,0
DA:240,0
LF:15
LH:0
end_of_record
SF:/Applications/Developpement/Qt/5.11.0/clang_64/lib/QtCore.framework/Headers/qobject.h
FN:228,_ZN7QObject7connectIM14GameControllerFvvES3_EEN11QMetaObject10ConnectionEPKN9QtPrivate15FunctionPointerIT_E6ObjectES8_PKNS7_IT0_E6ObjectESD_N2Qt14ConnectionTypeE
FN:228,_ZN7QObject7connectIM16BurgerControllerFvvEM14GameControllerFvvEEEN11QMetaObject10ConnectionEPKN9QtPrivate15FunctionPointerIT_E6ObjectESB_PKNSA_IT0_E6ObjectESG_N2Qt14ConnectionTypeE
FN:408,_ZNK7QObject6parentEv
FN:499,_Z12qobject_castIP16BurgerControllerET_P7QObject
FNDA:0,_ZN7QObject7connectIM16BurgerControllerFvvEM14GameControllerFvvEEEN11QMetaObject10ConnectionEPKN9QtPrivate15FunctionPointerIT_E6ObjectESB_PKNSA_IT0_E6ObjectESG_N2Qt14ConnectionTypeE
FNDA:0,_ZN7QObject7connectIM14GameControllerFvvES3_EEN11QMetaObject10ConnectionEPKN9QtPrivate15FunctionPointerIT_E6ObjectES8_PKNS7_IT0_E6ObjectESD_N2Qt14ConnectionTypeE
FNDA:0,_ZNK7QObject6parentEv
FNDA:0,_Z12qobject_castIP16BurgerControllerET_P7QObject
FNF:4
FNH:0
DA:246,0
DA:247,0
DA:248,0
DA:250,0
DA:251,0
DA:252,0
DA:253,0
DA:254,0
DA:255,0
DA:408,0
DA:504,0
LF:11
LH:0
end_of_record
SF:/Applications/Developpement/Qt/5.11.0/clang_64/lib/QtCore.framework/Headers/qobject_impl.h
FN:73,_ZN9QtPrivate15ConnectionTypesINS_4ListIJEEELb1EE5typesEv
FNDA:0,_ZN9QtPrivate15ConnectionTypesINS_4ListIJEEELb1EE5typesEv
FNF:1
FNH:0
DA:73,0
LF:1
LH:0
end_of_record
SF:/Applications/Developpement/Qt/5.11.0/clang_64/lib/QtCore.framework/Headers/qobjectdefs_impl.h
FN:88,_ZN9QtPrivate16ApplyReturnValueIvEC2EPv
FN:88,_ZN9QtPrivate16ApplyReturnValueIvEC1EPv
FN:133,_ZN9QtPrivate11FunctorCallINS_11IndexesListIJEEENS_4ListIJEEEvM14GameControllerFvvEE4callES7_PS5_PPv
FN:166,_ZN9QtPrivate15FunctionPointerIM14GameControllerFvvEE4callINS_4ListIJEEEvEEvS3_PS1_PPv
FN:369,_ZN9QtPrivate15QSlotObjectBaseC2EPFviPS0_P7QObjectPPvPbE
FN:378,_ZN9QtPrivate15QSlotObjectBaseD2Ev
FN:385,_ZN9QtPrivate11QSlotObjectIM14GameControllerFvvENS_4ListIJEEEvED1Ev
FN:385,_ZN9QtPrivate11QSlotObjectIM14GameControllerFvvENS_4ListIJEEEvED2Ev
FN:389,_ZN9QtPrivate11QSlotObjectIM14GameControllerFvvENS_4ListIJEEEvE4implEiPNS_15QSlotObjectBaseEP7QObjectPPvPb
FN:405,_ZN9QtPrivate11QSlotObjectIM14GameControllerFvvENS_4ListIJEEEvEC2ES3_
FN:405,_ZN9QtPrivate11QSlotObjectIM14GameControllerFvvENS_4ListIJEEEvEC1ES3_
FNDA:0,_ZN9QtPrivate16ApplyReturnValueIvEC1EPv
FNDA:0,_ZN9QtPrivate16ApplyReturnValueIvEC2EPv
FNDA:0,_ZN9QtPrivate11FunctorCallINS_11IndexesListIJEEENS_4ListIJEEEvM14GameControllerFvvEE4callES7_PS5_PPv
FNDA:0,_ZN9QtPrivate15FunctionPointerIM14GameControllerFvvEE4callINS_4ListIJEEEvEEvS3_PS1_PPv
FNDA:0,_ZN9QtPrivate15QSlotObjectBaseC2EPFviPS0_P7QObjectPPvPbE
FNDA:0,_ZN9QtPrivate15QSlotObjectBaseD2Ev
FNDA:0,_ZN9QtPrivate11QSlotObjectIM14GameControllerFvvENS_4ListIJEEEvED1Ev
FNDA:0,_ZN9QtPrivate11QSlotObjectIM14GameControllerFvvENS_4ListIJEEEvED2Ev
FNDA:0,_ZN9QtPrivate11QSlotObjectIM14GameControllerFvvENS_4ListIJEEEvE4implEiPNS_15QSlotObjectBaseEP7QObjectPPvPb
FNDA:0,_ZN9QtPrivate11QSlotObjectIM14GameControllerFvvENS_4ListIJEEEvEC1ES3_
FNDA:0,_ZN9QtPrivate11QSlotObjectIM14GameControllerFvvENS_4ListIJEEEvEC2ES3_
FNF:11
FNH:0
DA:88,0
DA:134,0
DA:135,0
DA:167,0
DA:168,0
DA:369,0
DA:378,0
DA:385,0
DA:391,0
DA:393,0
DA:394,0
DA:396,0
DA:397,0
DA:399,0
DA:400,0
DA:402,0
DA:403,0
DA:405,0
LF:18
LH:0
end_of_record
SF:/Applications/Developpement/Qt/5.11.0/clang_64/lib/QtCore.framework/Headers/qrefcount.h
FN:65,_ZN9QtPrivate8RefCount5derefEv
FNDA:0,_ZN9QtPrivate8RefCount5derefEv
FNF:1
FNH:0
DA:66,0
DA:68,0
DA:69,0
DA:71,0
DA:72,0
DA:73,0
DA:74,0
LF:7
LH:0
end_of_record
SF:/Applications/Developpement/Qt/5.11.0/clang_64/lib/QtCore.framework/Headers/qscopedpointer.h
FN:116,_ZNK14QScopedPointerI11QObjectData21QScopedPointerDeleterIS0_EEptEv
FNDA:0,_ZNK14QScopedPointerI11QObjectData21QScopedPointerDeleterIS0_EEptEv
FNF:1
FNH:0
DA:118,0
LF:1
LH:0
end_of_record
SF:/Applications/Developpement/Qt/5.11.0/clang_64/lib/QtCore.framework/Headers/qshareddata.h
FN:172,_ZN28QExplicitlySharedDataPointerI10BurgerDataEC1ERKS1_
FN:172,_ZN28QExplicitlySharedDataPointerI10BurgerDataEC2ERKS1_
FNDA:0,_ZN28QExplicitlySharedDataPointerI10BurgerDataEC1ERKS1_
FNDA:0,_ZN28QExplicitlySharedDataPointerI10BurgerDataEC2ERKS1_
FNF:2
FNH:0
DA:172,0
LF:1
LH:0
end_of_record
SF:/Applications/Developpement/Qt/5.11.0/clang_64/lib/QtCore.framework/Headers/qstring.h
FN:567,_ZN7QString8fromUtf8EPKci
FN:693,_ZN7QStringC1EPKc
FN:693,_ZN7QStringC2EPKc
FN:928,_ZNK7QString6lengthEv
FN:944,_ZNK7QString9constDataEv
FN:1130,_ZN7QStringD1Ev
FN:1130,_ZN7QStringD2Ev
FNDA:0,_ZN7QString8fromUtf8EPKci
FNDA:0,_ZN7QStringC1EPKc
FNDA:0,_ZN7QStringC2EPKc
FNDA:0,_ZNK7QString6lengthEv
FNDA:0,_ZNK7QString9constDataEv
FNDA:0,_ZN7QStringD1Ev
FNDA:0,_ZN7QStringD2Ev
FNF:7
FNH:0
DA:569,0
DA:694,0
DA:695,0
DA:929,0
DA:945,0
DA:1130,0
LF:6
LH:0
end_of_record
SF:/Applications/Developpement/Qt/5.11.0/clang_64/lib/QtQml.framework/Headers/qqmldebug.h
FN:79,__cxx_global_var_init
FNDA:1,__cxx_global_var_init
FNF:1
FNH:1
DA:79,2
LF:1
LH:1
end_of_record
SF:/Library/Developer/CommandLineTools/usr/include/c++/v1/atomic
FN:927,_ZNKSt3__113__atomic_baseIiLb0EE4loadENS_12memory_orderE
FN:985,_ZNSt3__113__atomic_baseIiLb0EEC2Ei
FN:1013,_ZNSt3__113__atomic_baseIiLb1EEC2Ei
FN:1019,_ZNSt3__113__atomic_baseIiLb1EE9fetch_addEiNS_12memory_orderE
FN:1025,_ZNSt3__113__atomic_baseIiLb1EE9fetch_subEiNS_12memory_orderE
FN:1057,_ZNSt3__113__atomic_baseIiLb1EEppEv
FN:1061,_ZNSt3__113__atomic_baseIiLb1EEmmEv
FN:1094,_ZNSt3__16atomicIiEC2Ei
FN:1094,_ZNSt3__16atomicIiEC1Ei
FNDA:0,_ZNKSt3__113__atomic_baseIiLb0EE4loadENS_12memory_orderE
FNDA:0,_ZNSt3__113__atomic_baseIiLb0EEC2Ei
FNDA:0,_ZNSt3__113__atomic_baseIiLb1EEC2Ei
FNDA:0,_ZNSt3__113__atomic_baseIiLb1EE9fetch_addEiNS_12memory_orderE
FNDA:0,_ZNSt3__113__atomic_baseIiLb1EE9fetch_subEiNS_12memory_orderE
FNDA:0,_ZNSt3__113__atomic_baseIiLb1EEppEv
FNDA:0,_ZNSt3__113__atomic_baseIiLb1EEmmEv
FNDA:0,_ZNSt3__16atomicIiEC1Ei
FNDA:0,_ZNSt3__16atomicIiEC2Ei
FNF:9
FNH:0
DA:929,0
DA:985,0
DA:1013,0
DA:1020,0
DA:1026,0
DA:1057,0
DA:1061,0
DA:1094,0
LF:8
LH:0
end_of_record
SF:/Users/tristan/Documents/Sources/BurgerQuiz/controllers/BurgerController.h
FN:94,_ZNK16BurgerController13isInitializedEv
FN:101,_ZNK16BurgerController6burgerEv
FN:106,_ZN16BurgerController7setTeamEN6Burger4TeamE
FN:111,_ZNK16BurgerController4teamEv
FNDA:0,_ZNK16BurgerController13isInitializedEv
FNDA:0,_ZNK16BurgerController6burgerEv
FNDA:0,_ZN16BurgerController7setTeamEN6Burger4TeamE
FNDA:0,_ZNK16BurgerController4teamEv
FNF:4
FNH:0
DA:95,0
DA:101,0
DA:106,0
DA:111,0
LF:4
LH:0
end_of_record
SF:/Users/tristan/Documents/Sources/BurgerQuiz/controllers/GameController.cpp
FN:12,_ZN14GameControllerC2EP7QObject
FN:12,_ZN14GameControllerC1EP7QObject
FN:26,_ZNK14GameController7isReadyEv
FN:30,_ZN14GameController10initializeEv
FN:38,_ZN14GameController13onBurgerReadyEv
FN:58,_ZN14GameController16findSecondBurgerEv
FN:66,__cxx_global_var_init.9
FN:67,_ZN14GameController15onButtonPressedEv
FN:101,_ZN14GameController18onGameStateChangedEv
FNDA:0,_ZN14GameControllerC2EP7QObject
FNDA:0,_ZN14GameControllerC1EP7QObject
FNDA:0,_ZNK14GameController7isReadyEv
FNDA:0,_ZN14GameController10initializeEv
FNDA:0,_ZN14GameController13onBurgerReadyEv
FNDA:0,_ZN14GameController16findSecondBurgerEv
FNDA:1,__cxx_global_var_init.9
FNDA:0,_ZN14GameController15onButtonPressedEv
FNDA:0,_ZN14GameController18onGameStateChangedEv
FNF:9
FNH:1
DA:13,0
DA:14,0
DA:15,0
DA:16,0
DA:17,0
DA:18,0
DA:19,0
DA:20,0
DA:21,0
DA:22,0
DA:23,0
DA:24,0
DA:27,0
DA:28,0
DA:32,0
DA:34,0
DA:35,0
DA:36,0
DA:40,0
DA:41,0
DA:42,0
DA:43,0
DA:45,0
DA:46,0
DA:48,0
DA:49,0
DA:50,0
DA:51,0
DA:52,0
DA:54,0
DA:56,0
DA:60,0
DA:61,0
DA:62,0
DA:66,2
DA:70,0
DA:72,0
DA:73,0
DA:74,0
DA:77,0
DA:78,0
DA:79,0
DA:82,0
DA:84,0
DA:85,0
DA:88,0
DA:89,0
DA:91,0
DA:92,0
DA:93,0
DA:95,0
DA:96,0
DA:98,0
DA:99,0
DA:103,0
DA:104,0
DA:116,0
LF:57
LH:1
end_of_record
SF:/Users/tristan/Documents/Sources/BurgerQuiz/controllers/GameController.h
FN:57,_ZNK14GameController23initializedBurgersCountEv
FNDA:0,_ZNK14GameController23initializedBurgersCountEv
FNF:1
FNH:0
DA:58,0
DA:59,0
DA:60,0
DA:61,0
DA:62,0
DA:63,0
LF:6
LH:0
end_of_record
SF:/Users/tristan/Documents/Sources/BurgerQuiz/domain/Burger.h
FN:60,_ZN6BurgerC1ERKS_
FN:60,_ZN6BurgerC2ERKS_
FNDA:0,_ZN6BurgerC1ERKS_
FNDA:0,_ZN6BurgerC2ERKS_
FNF:2
FNH:0
DA:61,0
LF:1
LH:0
end_of_record
SF:/Users/tristan/Documents/Sources/BurgerQuiz/helpers/DebugHelper.hpp
FN:23,_ZN11DebugHelper12teamToStringEN6Burger4TeamE
FNDA:0,_ZN11DebugHelper12teamToStringEN6Burger4TeamE
FNF:1
FNH:0
DA:24,0
DA:25,0
DA:26,0
DA:27,0
DA:30,0
DA:31,0
LF:6
LH:0
end_of_record
TN:
SF:/Applications/Developpement/Qt/5.11.0/clang_64/lib/QtCore.framework/Headers/qscopedpointer.h
FN:116,_ZNK14QScopedPointerI11QObjectData21QScopedPointerDeleterIS0_EEptEv
FNDA:0,_ZNK14QScopedPointerI11QObjectData21QScopedPointerDeleterIS0_EEptEv
FNF:1
FNH:0
DA:118,0
LF:1
LH:0
end_of_record
SF:/Applications/Developpement/Qt/5.11.0/clang_64/lib/QtQml.framework/Headers/qqmldebug.h
FN:79,__cxx_global_var_init
FNDA:1,__cxx_global_var_init
FNF:1
FNH:1
DA:79,2
LF:1
LH:1
end_of_record
SF:/tmp/build-tests-Desktop_Qt_5_11_0_clang_64bit-Debug/tst_testdebughelper/moc_Burger.cpp
FN:78,_ZN6Burger18qt_static_metacallEP7QObjectN11QMetaObject4CallEiPPv
FN:106,_ZNK6Burger10metaObjectEv
FN:111,_ZN6Burger11qt_metacastEPKc
FN:119,_ZN6Burger11qt_metacallEN11QMetaObject4CallEiPPv
FN:137,_ZN6Burger11teamChangedEv
FNDA:0,_ZN6Burger18qt_static_metacallEP7QObjectN11QMetaObject4CallEiPPv
FNDA:0,_ZNK6Burger10metaObjectEv
FNDA:0,_ZN6Burger11qt_metacastEPKc
FNDA:0,_ZN6Burger11qt_metacallEN11QMetaObject4CallEiPPv
FNDA:0,_ZN6Burger11teamChangedEv
FNF:5
FNH:0
DA:80,0
DA:81,0
DA:83,0
DA:84,0
DA:86,0
DA:87,0
DA:88,0
DA:91,0
DA:92,0
DA:93,0
DA:96,0
DA:98,0
DA:108,0
DA:113,0
DA:114,0
DA:115,0
DA:116,0
DA:117,0
DA:121,0
DA:122,0
DA:123,0
DA:124,0
DA:125,0
DA:126,0
DA:127,0
DA:128,0
DA:129,0
DA:130,0
DA:131,0
DA:132,0
DA:133,0
DA:134,0
DA:139,0
DA:140,0
LF:34
LH:0
end_of_record
TN:
SF:/Applications/Developpement/Qt/5.11.0/clang_64/lib/QtCore.framework/Headers/qarraydata.h
FN:123,_ZN10QArrayData10sharedNullEv
FN:234,_ZN15QTypedArrayDataItE10deallocateEP10QArrayData
FN:255,_ZN15QTypedArrayDataItE10sharedNullEv
FNDA:0,_ZN10QArrayData10sharedNullEv
FNDA:0,_ZN15QTypedArrayDataItE10deallocateEP10QArrayData
FNDA:0,_ZN15QTypedArrayDataItE10sharedNullEv
FNF:3
FNH:0
DA:123,0
DA:237,0
DA:238,0
DA:258,0
LF:4
LH:0
end_of_record
SF:/Applications/Developpement/Qt/5.11.0/clang_64/lib/QtCore.framework/Headers/qatomic.h
FN:60,_ZN14QAtomicIntegerIiEC2Ei
FN:162,_ZN10QAtomicIntC2Ei
FN:162,_ZN10QAtomicIntC1Ei
FNDA:0,_ZN14QAtomicIntegerIiEC2Ei
FNDA:0,_ZN10QAtomicIntC1Ei
FNDA:0,_ZN10QAtomicIntC2Ei
FNF:3
FNH:0
DA:60,0
DA:162,0
LF:2
LH:0
end_of_record
SF:/Applications/Developpement/Qt/5.11.0/clang_64/lib/QtCore.framework/Headers/qatomic_cxx11.h
FN:225,_ZN10QAtomicOpsIiE4loadIiEET_RKNSt3__16atomicIS2_EE
FN:263,_ZN10QAtomicOpsIiE3refIiEEbRNSt3__16atomicIT_EE
FN:269,_ZN10QAtomicOpsIiE5derefIiEEbRNSt3__16atomicIT_EE
FNDA:0,_ZN10QAtomicOpsIiE4loadIiEET_RKNSt3__16atomicIS2_EE
FNDA:0,_ZN10QAtomicOpsIiE3refIiEEbRNSt3__16atomicIT_EE
FNDA:0,_ZN10QAtomicOpsIiE5derefIiEEbRNSt3__16atomicIT_EE
FNF:3
FNH:0
DA:227,0
DA:265,0
DA:271,0
LF:3
LH:0
end_of_record
SF:/Applications/Developpement/Qt/5.11.0/clang_64/lib/QtCore.framework/Headers/qbasicatomic.h
FN:91,_ZNK19QBasicAtomicIntegerIiE4loadEv
FN:102,_ZN19QBasicAtomicIntegerIiE3refEv
FN:103,_ZN19QBasicAtomicIntegerIiE5derefEv
FN:209,_ZN19QBasicAtomicIntegerIiEC2Ei
FNDA:0,_ZNK19QBasicAtomicIntegerIiE4loadEv
FNDA:0,_ZN19QBasicAtomicIntegerIiE3refEv
FNDA:0,_ZN19QBasicAtomicIntegerIiE5derefEv
FNDA:0,_ZN19QBasicAtomicIntegerIiEC2Ei
FNF:4
FNH:0
DA:91,0
DA:102,0
DA:103,0
DA:209,0
LF:4
LH:0
end_of_record
SF:/Applications/Developpement/Qt/5.11.0/clang_64/lib/QtCore.framework/Headers/qrefcount.h
FN:54,_ZN9QtPrivate8RefCount3refEv
FN:65,_ZN9QtPrivate8RefCount5derefEv
FNDA:0,_ZN9QtPrivate8RefCount3refEv
FNDA:0,_ZN9QtPrivate8RefCount5derefEv
FNF:2
FNH:0
DA:55,0
DA:57,0
DA:58,0
DA:60,0
DA:61,0
DA:62,0
DA:63,0
DA:66,0
DA:68,0
DA:69,0
DA:71,0
DA:72,0
DA:73,0
DA:74,0
LF:14
LH:0
end_of_record
SF:/Applications/Developpement/Qt/5.11.0/clang_64/lib/QtCore.framework/Headers/qshareddata.h
FN:60,_ZN11QSharedDataC2Ev
FN:146,_ZN28QExplicitlySharedDataPointerI10BurgerDataEptEv
FN:147,_ZNK28QExplicitlySharedDataPointerI10BurgerDataEptEv
FN:169,_ZN28QExplicitlySharedDataPointerI10BurgerDataED2Ev
FN:169,_ZN28QExplicitlySharedDataPointerI10BurgerDataED1Ev
FN:270,_ZN28QExplicitlySharedDataPointerI10BurgerDataEC1EPS0_
FN:270,_ZN28QExplicitlySharedDataPointerI10BurgerDataEC2EPS0_
FNDA:0,_ZN11QSharedDataC2Ev
FNDA:0,_ZN28QExplicitlySharedDataPointerI10BurgerDataEptEv
FNDA:0,_ZNK28QExplicitlySharedDataPointerI10BurgerDataEptEv
FNDA:0,_ZN28QExplicitlySharedDataPointerI10BurgerDataED1Ev
FNDA:0,_ZN28QExplicitlySharedDataPointerI10BurgerDataED2Ev
FNDA:0,_ZN28QExplicitlySharedDataPointerI10BurgerDataEC1EPS0_
FNDA:0,_ZN28QExplicitlySharedDataPointerI10BurgerDataEC2EPS0_
FNF:7
FNH:0
DA:60,0
DA:146,0
DA:147,0
DA:169,0
DA:271,0
DA:272,0
LF:6
LH:0
end_of_record
SF:/Applications/Developpement/Qt/5.11.0/clang_64/lib/QtCore.framework/Headers/qstring.h
FN:952,_ZN7QStringC1ERKS_
FN:952,_ZN7QStringC2ERKS_
FN:1129,_ZN7QStringC1Ev
FN:1129,_ZN7QStringC2Ev
FN:1130,_ZN7QStringD1Ev
FN:1130,_ZN7QStringD2Ev
FNDA:0,_ZN7QStringC1ERKS_
FNDA:0,_ZN7QStringC2ERKS_
FNDA:0,_ZN7QStringC1Ev
FNDA:0,_ZN7QStringC2Ev
FNDA:0,_ZN7QStringD1Ev
FNDA:0,_ZN7QStringD2Ev
FNF:6
FNH:0
DA:952,0
DA:953,0
DA:1129,0
DA:1130,0
LF:4
LH:0
end_of_record
SF:/Applications/Developpement/Qt/5.11.0/clang_64/lib/QtQml.framework/Headers/qqmldebug.h
FN:79,__cxx_global_var_init
FNDA:1,__cxx_global_var_init
FNF:1
FNH:1
DA:79,2
LF:1
LH:1
end_of_record
SF:/Library/Developer/CommandLineTools/usr/include/c++/v1/atomic
FN:927,_ZNKSt3__113__atomic_baseIiLb0EE4loadENS_12memory_orderE
FN:985,_ZNSt3__113__atomic_baseIiLb0EEC2Ei
FN:1013,_ZNSt3__113__atomic_baseIiLb1EEC2Ei
FN:1019,_ZNSt3__113__atomic_baseIiLb1EE9fetch_addEiNS_12memory_orderE
FN:1025,_ZNSt3__113__atomic_baseIiLb1EE9fetch_subEiNS_12memory_orderE
FN:1057,_ZNSt3__113__atomic_baseIiLb1EEppEv
FN:1061,_ZNSt3__113__atomic_baseIiLb1EEmmEv
FN:1094,_ZNSt3__16atomicIiEC2Ei
FN:1094,_ZNSt3__16atomicIiEC1Ei
FNDA:0,_ZNKSt3__113__atomic_baseIiLb0EE4loadENS_12memory_orderE
FNDA:0,_ZNSt3__113__atomic_baseIiLb0EEC2Ei
FNDA:0,_ZNSt3__113__atomic_baseIiLb1EEC2Ei
FNDA:0,_ZNSt3__113__atomic_baseIiLb1EE9fetch_addEiNS_12memory_orderE
FNDA:0,_ZNSt3__113__atomic_baseIiLb1EE9fetch_subEiNS_12memory_orderE
FNDA:0,_ZNSt3__113__atomic_baseIiLb1EEppEv
FNDA:0,_ZNSt3__113__atomic_baseIiLb1EEmmEv
FNDA:0,_ZNSt3__16atomicIiEC1Ei
FNDA:0,_ZNSt3__16atomicIiEC2Ei
FNF:9
FNH:0
DA:929,0
DA:985,0
DA:1013,0
DA:1020,0
DA:1026,0
DA:1057,0
DA:1061,0
DA:1094,0
LF:8
LH:0
end_of_record
SF:/Users/tristan/Documents/Sources/BurgerQuiz/domain/Burger.cpp
FN:4,_ZN6BurgerC1Ev
FN:4,_ZN6BurgerC2Ev
FN:8,_ZN6BurgerD0Ev
FN:8,_ZN6BurgerD1Ev
FN:8,_ZN6BurgerD2Ev
FN:10,_ZN6BurgerC1ENS_4TeamE7QString
FN:10,_ZN6BurgerC2ENS_4TeamE7QString
FN:17,_ZN6Burger7setTeamENS_4TeamE
FN:22,_ZNK6Burger4teamEv
FN:27,_ZNK6Burger8portNameEv
FN:32,_ZN6Burger11setPortNameE7QString
FN:36,_ZNK6Burger8ledStateEv
FN:41,_ZN6Burger11setLedStateENS_8LedStateE
FN:46,_ZNK6Burger11burgerStateEv
FN:51,_ZN6Burger14setBurgerStateENS_11BurgerStateE
FN:56,_ZNK6Burger5validEv
FN:61,_ZNK6Burger7isReadyEv
FN:66,_ZN6Burger6enableEv
FN:71,_ZN6Burger7disableEv
FN:76,_ZNK6Burger9isEnabledEv
FNDA:0,_ZN6BurgerC2Ev
FNDA:0,_ZN6BurgerC1Ev
FNDA:0,_ZN6BurgerD2Ev
FNDA:0,_ZN6BurgerD1Ev
FNDA:0,_ZN6BurgerD0Ev
FNDA:0,_ZN6BurgerC2ENS_4TeamE7QString
FNDA:0,_ZN6BurgerC1ENS_4TeamE7QString
FNDA:0,_ZN6Burger7setTeamENS_4TeamE
FNDA:0,_ZNK6Burger4teamEv
FNDA:0,_ZNK6Burger8portNameEv
FNDA:0,_ZN6Burger11setPortNameE7QString
FNDA:0,_ZNK6Burger8ledStateEv
FNDA:0,_ZN6Burger11setLedStateENS_8LedStateE
FNDA:0,_ZNK6Burger11burgerStateEv
FNDA:0,_ZN6Burger14setBurgerStateENS_11BurgerStateE
FNDA:0,_ZNK6Burger5validEv
FNDA:0,_ZNK6Burger7isReadyEv
FNDA:0,_ZN6Burger6enableEv
FNDA:0,_ZN6Burger7disableEv
FNDA:0,_ZNK6Burger9isEnabledEv
FNF:20
FNH:0
DA:4,0
DA:5,0
DA:6,0
DA:8,0
DA:10,0
DA:11,0
DA:12,0
DA:13,0
DA:14,0
DA:15,0
DA:19,0
DA:20,0
DA:24,0
DA:29,0
DA:33,0
DA:34,0
DA:38,0
DA:43,0
DA:44,0
DA:48,0
DA:53,0
DA:54,0
DA:58,0
DA:63,0
DA:68,0
DA:69,0
DA:73,0
DA:74,0
DA:78,0
LF:29
LH:0
end_of_record
SF:/Users/tristan/Documents/Sources/BurgerQuiz/domain/Burger.h
FN:15,_ZN10BurgerDataC1Ev
FN:15,_ZN10BurgerDataC2Ev
FN:16,_ZN10BurgerDataD2Ev
FN:16,_ZN10BurgerDataD1Ev
FNDA:0,_ZN10BurgerDataC1Ev
FNDA:0,_ZN10BurgerDataC2Ev
FNDA:0,_ZN10BurgerDataD1Ev
FNDA:0,_ZN10BurgerDataD2Ev
FNF:4
FNH:0
DA:15,0
DA:16,0
DA:26,0
DA:34,0
LF:4
LH:0
end_of_record
TN:
SF:/Applications/Developpement/Qt/5.11.0/clang_64/lib/QtCore.framework/Headers/qarraydata.h
FN:57,_ZN10QArrayData4dataEv
FN:206,_ZN15QTypedArrayDataIcE4dataEv
FN:234,_ZN15QTypedArrayDataIcE10deallocateEP10QArrayData
FNDA:0,_ZN10QArrayData4dataEv
FNDA:0,_ZN15QTypedArrayDataIcE4dataEv
FNDA:0,_ZN15QTypedArrayDataIcE10deallocateEP10QArrayData
FNF:3
FNH:0
DA:59,0
DA:61,0
DA:206,0
DA:237,0
DA:238,0
LF:5
LH:0
end_of_record
SF:/Applications/Developpement/Qt/5.11.0/clang_64/lib/QtCore.framework/Headers/qatomic_cxx11.h
FN:225,_ZN10QAtomicOpsIiE4loadIiEET_RKNSt3__16atomicIS2_EE
FN:237,_ZN10QAtomicOpsIiE11loadAcquireIiEET_RKNSt3__16atomicIS2_EE
FN:255,_ZN10QAtomicOpsIiE12storeReleaseIiEEvRNSt3__16atomicIT_EES4_
FN:269,_ZN10QAtomicOpsIiE5derefIiEEbRNSt3__16atomicIT_EE
FNDA:0,_ZN10QAtomicOpsIiE4loadIiEET_RKNSt3__16atomicIS2_EE
FNDA:0,_ZN10QAtomicOpsIiE11loadAcquireIiEET_RKNSt3__16atomicIS2_EE
FNDA:0,_ZN10QAtomicOpsIiE12storeReleaseIiEEvRNSt3__16atomicIT_EES4_
FNDA:0,_ZN10QAtomicOpsIiE5derefIiEEbRNSt3__16atomicIT_EE
FNF:4
FNH:0
DA:227,0
DA:239,0
DA:257,0
DA:258,0
DA:271,0
LF:5
LH:0
end_of_record
SF:/Applications/Developpement/Qt/5.11.0/clang_64/lib/QtCore.framework/Headers/qbasicatomic.h
FN:91,_ZNK19QBasicAtomicIntegerIiE4loadEv
FN:94,_ZNK19QBasicAtomicIntegerIiE11loadAcquireEv
FN:95,_ZN19QBasicAtomicIntegerIiE12storeReleaseEi
FN:103,_ZN19QBasicAtomicIntegerIiE5derefEv
FNDA:0,_ZNK19QBasicAtomicIntegerIiE4loadEv
FNDA:0,_ZNK19QBasicAtomicIntegerIiE11loadAcquireEv
FNDA:0,_ZN19QBasicAtomicIntegerIiE12storeReleaseEi
FNDA:0,_ZN19QBasicAtomicIntegerIiE5derefEv
FNF:4
FNH:0
DA:91,0
DA:94,0
DA:95,0
DA:103,0
LF:4
LH:0
end_of_record
SF:/Applications/Developpement/Qt/5.11.0/clang_64/lib/QtCore.framework/Headers/qbytearray.h
FN:469,_ZN10QByteArrayD1Ev
FN:469,_ZN10QByteArrayD2Ev
FN:470,_ZNK10QByteArray4sizeEv
FN:492,_ZNK10QByteArray9constDataEv
FN:603,_ZeqRK10QByteArrayS1_
FNDA:0,_ZN10QByteArrayD1Ev
FNDA:0,_ZN10QByteArrayD2Ev
FNDA:0,_ZNK10QByteArray4sizeEv
FNDA:0,_ZNK10QByteArray9constDataEv
FNDA:0,_ZeqRK10QByteArrayS1_
FNF:5
FNH:0
DA:469,0
DA:471,0
DA:493,0
DA:604,0
LF:4
LH:0
end_of_record
SF:/Applications/Developpement/Qt/5.11.0/clang_64/lib/QtCore.framework/Headers/qflags.h
FN:57,_ZN5QFlagC1Ei
FN:57,_ZN5QFlagC2Ei
FN:71,_ZNK5QFlagcvjEv
FN:122,_ZN6QFlagsIN9QMetaType8TypeFlagEEC2E5QFlag
FN:122,_ZN6QFlagsIN9QMetaType8TypeFlagEEC1E5QFlag
FN:133,_ZN6QFlagsIN9QMetaType8TypeFlagEEoRES1_
FNDA:0,_ZN5QFlagC1Ei
FNDA:0,_ZN5QFlagC2Ei
FNDA:0,_ZNK5QFlagcvjEv
FNDA:0,_ZN6QFlagsIN9QMetaType8TypeFlagEEC1E5QFlag
FNDA:0,_ZN6QFlagsIN9QMetaType8TypeFlagEEC2E5QFlag
FNDA:0,_ZN6QFlagsIN9QMetaType8TypeFlagEEoRES1_
FNF:6
FNH:0
DA:57,0
DA:71,0
DA:122,0
DA:133,0
LF:4
LH:0
end_of_record
SF:/Applications/Developpement/Qt/5.11.0/clang_64/lib/QtCore.framework/Headers/qmetatype.h
FN:767,_ZN17QtMetaTypePrivate23QMetaTypeFunctionHelperIN6Burger4TeamELb1EE8DestructEPv
FN:773,_ZN17QtMetaTypePrivate23QMetaTypeFunctionHelperIN6Burger4TeamELb1EE9ConstructEPvPKv
FN:1438,_ZN9QtPrivate17MetaObjectForTypeIN6Burger4TeamEvE5valueEv
FN:1515,_ZN9QtPrivate34SequentialContainerConverterHelperIN6Burger4TeamELb0EE17registerConverterEi
FN:1538,_ZN9QtPrivate35AssociativeContainerConverterHelperIN6Burger4TeamELb0EE17registerConverterEi
FN:1591,_ZN9QtPrivate6IsPairIN6Burger4TeamEE17registerConverterEi
FN:1607,_ZN9QtPrivate26MetaTypeSmartPointerHelperIN6Burger4TeamEvE17registerConverterEi
FN:1634,_ZN12QMetaTypeId2IN6Burger4TeamEE14qt_metatype_idEv
FN:1646,_ZN9QtPrivate17QMetaTypeIdHelperIN6Burger4TeamELb1EE14qt_metatype_idEv
FN:1700,_Z27qRegisterNormalizedMetaTypeIN6Burger4TeamEEiRK10QByteArrayPT_N9QtPrivate21MetaTypeDefinedHelperIS5_Xaasr12QMetaTypeId2IS5_EE7Definedntsr12QMetaTypeId2IS5_EE9IsBuiltInEE11DefinedTypeE
FN:1737,_Z17qRegisterMetaTypeIN6Burger4TeamEEiPKcPT_N9QtPrivate21MetaTypeDefinedHelperIS4_Xaasr12QMetaTypeId2IS4_EE7Definedntsr12QMetaTypeId2IS4_EE9IsBuiltInEE11DefinedTypeE
FN:1767,_Z11qMetaTypeIdIN6Burger4TeamEEiv
FN:1774,_Z17qRegisterMetaTypeIN6Burger4TeamEEiv
FNDA:0,_ZN17QtMetaTypePrivate23QMetaTypeFunctionHelperIN6Burger4TeamELb1EE8DestructEPv
FNDA:0,_ZN17QtMetaTypePrivate23QMetaTypeFunctionHelperIN6Burger4TeamELb1EE9ConstructEPvPKv
FNDA:0,_ZN9QtPrivate17MetaObjectForTypeIN6Burger4TeamEvE5valueEv
FNDA:0,_ZN9QtPrivate34SequentialContainerConverterHelperIN6Burger4TeamELb0EE17registerConverterEi
FNDA:0,_ZN9QtPrivate35AssociativeContainerConverterHelperIN6Burger4TeamELb0EE17registerConverterEi
FNDA:0,_ZN9QtPrivate6IsPairIN6Burger4TeamEE17registerConverterEi
FNDA:0,_ZN9QtPrivate26MetaTypeSmartPointerHelperIN6Burger4TeamEvE17registerConverterEi
FNDA:0,_ZN12QMetaTypeId2IN6Burger4TeamEE14qt_metatype_idEv
FNDA:0,_ZN9QtPrivate17QMetaTypeIdHelperIN6Burger4TeamELb1EE14qt_metatype_idEv
FNDA:0,_Z27qRegisterNormalizedMetaTypeIN6Burger4TeamEEiRK10QByteArrayPT_N9QtPrivate21MetaTypeDefinedHelperIS5_Xaasr12QMetaTypeId2IS5_EE7Definedntsr12QMetaTypeId2IS5_EE9IsBuiltInEE11DefinedTypeE
FNDA:0,_Z17qRegisterMetaTypeIN6Burger4TeamEEiPKcPT_N9QtPrivate21MetaTypeDefinedHelperIS4_Xaasr12QMetaTypeId2IS4_EE7Definedntsr12QMetaTypeId2IS4_EE9IsBuiltInEE11DefinedTypeE
FNDA:0,_Z11qMetaTypeIdIN6Burger4TeamEEiv
FNDA:0,_Z17qRegisterMetaTypeIN6Burger4TeamEEiv
FNF:13
FNH:0
DA:770,0
DA:771,0
DA:775,0
DA:776,0
DA:777,0
DA:778,0
DA:1438,0
DA:1517,0
DA:1540,0
DA:1593,0
DA:1607,0
DA:1634,0
DA:1647,0
DA:1708,0
DA:1710,0
DA:1711,0
DA:1712,0
DA:1714,0
DA:1716,0
DA:1717,0
DA:1719,0
DA:1723,0
DA:1724,0
DA:1726,0
DA:1727,0
DA:1728,0
DA:1729,0
DA:1730,0
DA:1731,0
DA:1733,0
DA:1734,0
DA:1747,0
DA:1749,0
DA:1750,0
DA:1770,0
DA:1776,0
LF:36
LH:0
end_of_record
SF:/Applications/Developpement/Qt/5.11.0/clang_64/lib/QtCore.framework/Headers/qrefcount.h
FN:65,_ZN9QtPrivate8RefCount5derefEv
FNDA:0,_ZN9QtPrivate8RefCount5derefEv
FNF:1
FNH:0
DA:66,0
DA:68,0
DA:69,0
DA:71,0
DA:72,0
DA:73,0
DA:74,0
LF:7
LH:0
end_of_record
SF:/Applications/Developpement/Qt/5.11.0/clang_64/lib/QtCore.framework/Headers/qscopedpointer.h
FN:116,_ZNK14QScopedPointerI11QObjectData21QScopedPointerDeleterIS0_EEptEv
FNDA:0,_ZNK14QScopedPointerI11QObjectData21QScopedPointerDeleterIS0_EEptEv
FNF:1
FNH:0
DA:118,0
LF:1
LH:0
end_of_record
SF:/Applications/Developpement/Qt/5.11.0/clang_64/lib/QtQml.framework/Headers/qqmldebug.h
FN:79,__cxx_global_var_init
FNDA:1,__cxx_global_var_init
FNF:1
FNH:1
DA:79,2
LF:1
LH:1
end_of_record
SF:/Library/Developer/CommandLineTools/usr/include/c++/v1/atomic
FN:919,_ZNSt3__113__atomic_baseIiLb0EE5storeEiNS_12memory_orderE
FN:927,_ZNKSt3__113__atomic_baseIiLb0EE4loadENS_12memory_orderE
FN:1025,_ZNSt3__113__atomic_baseIiLb1EE9fetch_subEiNS_12memory_orderE
FN:1061,_ZNSt3__113__atomic_baseIiLb1EEmmEv
FNDA:0,_ZNSt3__113__atomic_baseIiLb0EE5storeEiNS_12memory_orderE
FNDA:0,_ZNKSt3__113__atomic_baseIiLb0EE4loadENS_12memory_orderE
FNDA:0,_ZNSt3__113__atomic_baseIiLb1EE9fetch_subEiNS_12memory_orderE
FNDA:0,_ZNSt3__113__atomic_baseIiLb1EEmmEv
FNF:4
FNH:0
DA:921,0
DA:929,0
DA:1026,0
DA:1061,0
LF:4
LH:0
end_of_record
SF:/Users/tristan/Documents/Sources/BurgerQuiz/domain/Burger.h
FN:151,_ZN11QMetaTypeIdIN6Burger4TeamEE14qt_metatype_idEv
FNDA:0,_ZN11QMetaTypeIdIN6Burger4TeamEE14qt_metatype_idEv
FNF:1
FNH:0
DA:151,0
LF:1
LH:0
end_of_record
SF:/Users/tristan/Documents/Sources/BurgerQuiz/controllers/GameController.h
FN:28,_ZN14GameControllerD1Ev
FN:28,_ZN14GameControllerD0Ev
FN:28,_ZN14GameControllerD2Ev
FNDA:0,_ZN14GameControllerD1Ev
FNDA:0,_ZN14GameControllerD0Ev
FNDA:0,_ZN14GameControllerD2Ev
FNF:3
FNH:0
DA:28,0
LF:1
LH:0
end_of_record
SF:/tmp/build-tests-Desktop_Qt_5_11_0_clang_64bit-Debug/tst_testdebughelper/moc_GameController.cpp
FN:124,_ZN14GameController18qt_static_metacallEP7QObjectN11QMetaObject4CallEiPPv
FN:223,_ZNK14GameController10metaObjectEv
FN:228,_ZN14GameController11qt_metacastEPKc
FN:236,_ZN14GameController11qt_metacallEN11QMetaObject4CallEiPPv
FN:271,_ZN14GameController9gameReadyEv
FN:277,_ZN14GameController14burgerSelectedEN6Burger4TeamE
FN:284,_ZN14GameController17burgerInitializedEN6Burger4TeamE
FN:291,_ZN14GameController16gameStateChangedEv
FNDA:0,_ZN14GameController18qt_static_metacallEP7QObjectN11QMetaObject4CallEiPPv
FNDA:0,_ZNK14GameController10metaObjectEv
FNDA:0,_ZN14GameController11qt_metacastEPKc
FNDA:0,_ZN14GameController11qt_metacallEN11QMetaObject4CallEiPPv
FNDA:0,_ZN14GameController9gameReadyEv
FNDA:0,_ZN14GameController14burgerSelectedEN6Burger4TeamE
FNDA:0,_ZN14GameController17burgerInitializedEN6Burger4TeamE
FNDA:0,_ZN14GameController16gameStateChangedEv
FNF:8
FNH:0
DA:126,0
DA:127,0
DA:129,0
DA:130,0
DA:131,0
DA:132,0
DA:133,0
DA:134,0
DA:135,0
DA:136,0
DA:137,0
DA:138,0
DA:140,0
DA:141,0
DA:142,0
DA:143,0
DA:145,0
DA:146,0
DA:148,0
DA:150,0
DA:152,0
DA:153,0
DA:155,0
DA:157,0
DA:159,0
DA:160,0
DA:163,0
DA:164,0
DA:165,0
DA:170,0
DA:171,0
DA:172,0
DA:177,0
DA:178,0
DA:179,0
DA:184,0
DA:185,0
DA:186,0
DA:189,0
DA:191,0
DA:192,0
DA:194,0
DA:195,0
DA:196,0
DA:197,0
DA:199,0
DA:200,0
DA:202,0
DA:203,0
DA:205,0
DA:206,0
DA:207,0
DA:208,0
DA:209,0
DA:210,0
DA:212,0
DA:213,0
DA:215,0
DA:225,0
DA:230,0
DA:231,0
DA:232,0
DA:233,0
DA:234,0
DA:238,0
DA:239,0
DA:240,0
DA:241,0
DA:242,0
DA:243,0
DA:244,0
DA:245,0
DA:246,0
DA:247,0
DA:248,0
DA:249,0
DA:251,0
DA:252,0
DA:253,0
DA:254,0
DA:255,0
DA:256,0
DA:257,0
DA:258,0
DA:259,0
DA:260,0
DA:261,0
DA:262,0
DA:263,0
DA:264,0
DA:265,0
DA:267,0
DA:268,0
DA:273,0
DA:274,0
DA:279,0
DA:280,0
DA:281,0
DA:286,0
DA:287,0
DA:288,0
DA:293,0
DA:294,0
LF:103
LH:0
end_of_record
TN:
SF:/Applications/Developpement/Qt/5.11.0/clang_64/lib/QtCore.framework/Headers/qarraydata.h
FN:234,_ZN15QTypedArrayDataIcE10deallocateEP10QArrayData
FN:234,_ZN15QTypedArrayDataItE10deallocateEP10QArrayData
FNDA:0,_ZN15QTypedArrayDataItE10deallocateEP10QArrayData
FNDA:0,_ZN15QTypedArrayDataIcE10deallocateEP10QArrayData
FNF:2
FNH:0
DA:237,0
DA:238,0
LF:2
LH:0
end_of_record
SF:/Applications/Developpement/Qt/5.11.0/clang_64/lib/QtCore.framework/Headers/qatomic_cxx11.h
FN:225,_ZN10QAtomicOpsIiE4loadIiEET_RKNSt3__16atomicIS2_EE
FN:263,_ZN10QAtomicOpsIiE3refIiEEbRNSt3__16atomicIT_EE
FN:269,_ZN10QAtomicOpsIiE5derefIiEEbRNSt3__16atomicIT_EE
FNDA:0,_ZN10QAtomicOpsIiE4loadIiEET_RKNSt3__16atomicIS2_EE
FNDA:0,_ZN10QAtomicOpsIiE3refIiEEbRNSt3__16atomicIT_EE
FNDA:0,_ZN10QAtomicOpsIiE5derefIiEEbRNSt3__16atomicIT_EE
FNF:3
FNH:0
DA:227,0
DA:265,0
DA:271,0
LF:3
LH:0
end_of_record
SF:/Applications/Developpement/Qt/5.11.0/clang_64/lib/QtCore.framework/Headers/qbasicatomic.h
FN:91,_ZNK19QBasicAtomicIntegerIiE4loadEv
FN:102,_ZN19QBasicAtomicIntegerIiE3refEv
FN:103,_ZN19QBasicAtomicIntegerIiE5derefEv
FNDA:0,_ZNK19QBasicAtomicIntegerIiE4loadEv
FNDA:0,_ZN19QBasicAtomicIntegerIiE3refEv
FNDA:0,_ZN19QBasicAtomicIntegerIiE5derefEv
FNF:3
FNH:0
DA:91,0
DA:102,0
DA:103,0
LF:3
LH:0
end_of_record
SF:/Applications/Developpement/Qt/5.11.0/clang_64/lib/QtCore.framework/Headers/qbytearray.h
FN:469,_ZN10QByteArrayD2Ev
FN:469,_ZN10QByteArrayD1Ev
FN:498,_ZN10QByteArrayC2ERKS_
FN:498,_ZN10QByteArrayC1ERKS_
FNDA:0,_ZN10QByteArrayD1Ev
FNDA:0,_ZN10QByteArrayD2Ev
FNDA:0,_ZN10QByteArrayC1ERKS_
FNDA:0,_ZN10QByteArrayC2ERKS_
FNF:4
FNH:0
DA:469,0
DA:498,0
DA:499,0
LF:3
LH:0
end_of_record
SF:/Applications/Developpement/Qt/5.11.0/clang_64/lib/QtCore.framework/Headers/qrefcount.h
FN:54,_ZN9QtPrivate8RefCount3refEv
FN:65,_ZN9QtPrivate8RefCount5derefEv
FNDA:0,_ZN9QtPrivate8RefCount3refEv
FNDA:0,_ZN9QtPrivate8RefCount5derefEv
FNF:2
FNH:0
DA:55,0
DA:57,0
DA:58,0
DA:60,0
DA:61,0
DA:62,0
DA:63,0
DA:66,0
DA:68,0
DA:69,0
DA:71,0
DA:72,0
DA:73,0
DA:74,0
LF:14
LH:0
end_of_record
SF:/Applications/Developpement/Qt/5.11.0/clang_64/lib/QtCore.framework/Headers/qscopedpointer.h
FN:116,_ZNK14QScopedPointerI11QObjectData21QScopedPointerDeleterIS0_EEptEv
FNDA:0,_ZNK14QScopedPointerI11QObjectData21QScopedPointerDeleterIS0_EEptEv
FNF:1
FNH:0
DA:118,0
LF:1
LH:0
end_of_record
SF:/Applications/Developpement/Qt/5.11.0/clang_64/lib/QtCore.framework/Headers/qstring.h
FN:952,_ZN7QStringC1ERKS_
FN:952,_ZN7QStringC2ERKS_
FN:1130,_ZN7QStringD1Ev
FN:1130,_ZN7QStringD2Ev
FNDA:0,_ZN7QStringC1ERKS_
FNDA:0,_ZN7QStringC2ERKS_
FNDA:0,_ZN7QStringD1Ev
FNDA:0,_ZN7QStringD2Ev
FNF:4
FNH:0
DA:952,0
DA:953,0
DA:1130,0
LF:3
LH:0
end_of_record
SF:/Applications/Developpement/Qt/5.11.0/clang_64/lib/QtQml.framework/Headers/qqmldebug.h
FN:79,__cxx_global_var_init
FNDA:1,__cxx_global_var_init
FNF:1
FNH:1
DA:79,2
LF:1
LH:1
end_of_record
SF:/Library/Developer/CommandLineTools/usr/include/c++/v1/atomic
FN:927,_ZNKSt3__113__atomic_baseIiLb0EE4loadENS_12memory_orderE
FN:1019,_ZNSt3__113__atomic_baseIiLb1EE9fetch_addEiNS_12memory_orderE
FN:1025,_ZNSt3__113__atomic_baseIiLb1EE9fetch_subEiNS_12memory_orderE
FN:1057,_ZNSt3__113__atomic_baseIiLb1EEppEv
FN:1061,_ZNSt3__113__atomic_baseIiLb1EEmmEv
FNDA:0,_ZNKSt3__113__atomic_baseIiLb0EE4loadENS_12memory_orderE
FNDA:0,_ZNSt3__113__atomic_baseIiLb1EE9fetch_addEiNS_12memory_orderE
FNDA:0,_ZNSt3__113__atomic_baseIiLb1EE9fetch_subEiNS_12memory_orderE
FNDA:0,_ZNSt3__113__atomic_baseIiLb1EEppEv
FNDA:0,_ZNSt3__113__atomic_baseIiLb1EEmmEv
FNF:5
FNH:0
DA:929,0
DA:1020,0
DA:1026,0
DA:1057,0
DA:1061,0
LF:5
LH:0
end_of_record
SF:/tmp/build-tests-Desktop_Qt_5_11_0_clang_64bit-Debug/tst_testdebughelper/moc_BurgerController.cpp
FN:154,_ZN16BurgerController18qt_static_metacallEP7QObjectN11QMetaObject4CallEiPPv
FN:255,_ZNK16BurgerController10metaObjectEv
FN:260,_ZN16BurgerController11qt_metacastEPKc
FN:268,_ZN16BurgerController11qt_metacallEN11QMetaObject4CallEiPPv
FN:286,_ZN16BurgerController5errorE7QString
FN:293,_ZN16BurgerController11initializedEv
FN:299,_ZN16BurgerController10portOpenedEv
FN:305,_ZN16BurgerController8pingSentEv
FN:311,_ZN16BurgerController12pongReceivedEv
FN:317,_ZN16BurgerController5readyEv
FN:323,_ZN16BurgerController13buttonPressedEv
FN:329,_ZN16BurgerController11selectionneEv
FNDA:0,_ZN16BurgerController18qt_static_metacallEP7QObjectN11QMetaObject4CallEiPPv
FNDA:0,_ZNK16BurgerController10metaObjectEv
FNDA:0,_ZN16BurgerController11qt_metacastEPKc
FNDA:0,_ZN16BurgerController11qt_metacallEN11QMetaObject4CallEiPPv
FNDA:0,_ZN16BurgerController5errorE7QString
FNDA:0,_ZN16BurgerController11initializedEv
FNDA:0,_ZN16BurgerController10portOpenedEv
FNDA:0,_ZN16BurgerController8pingSentEv
FNDA:0,_ZN16BurgerController12pongReceivedEv
FNDA:0,_ZN16BurgerController5readyEv
FNDA:0,_ZN16BurgerController13buttonPressedEv
FNDA:0,_ZN16BurgerController11selectionneEv
FNF:12
FNH:0
DA:156,0
DA:157,0
DA:159,0
DA:160,0
DA:161,0
DA:162,0
DA:163,0
DA:164,0
DA:165,0
DA:166,0
DA:167,0
DA:168,0
DA:169,0
DA:170,0
DA:171,0
DA:172,0
DA:173,0
DA:174,0
DA:175,0
DA:176,0
DA:177,0
DA:178,0
DA:179,0
DA:180,0
DA:181,0
DA:182,0
DA:183,0
DA:184,0
DA:185,0
DA:187,0
DA:188,0
DA:189,0
DA:192,0
DA:193,0
DA:194,0
DA:199,0
DA:200,0
DA:201,0
DA:206,0
DA:207,0
DA:208,0
DA:213,0
DA:214,0
DA:215,0
DA:220,0
DA:221,0
DA:222,0
DA:227,0
DA:228,0
DA:229,0
DA:234,0
DA:235,0
DA:236,0
DA:241,0
DA:242,0
DA:243,0
DA:246,0
DA:247,0
DA:257,0
DA:262,0
DA:263,0
DA:264,0
DA:265,0
DA:266,0
DA:270,0
DA:271,0
DA:272,0
DA:273,0
DA:274,0
DA:275,0
DA:276,0
DA:277,0
DA:278,0
DA:279,0
DA:280,0
DA:281,0
DA:282,0
DA:283,0
DA:288,0
DA:289,0
DA:290,0
DA:295,0
DA:296,0
DA:301,0
DA:302,0
DA:307,0
DA:308,0
DA:313,0
DA:314,0
DA:319,0
DA:320,0
DA:325,0
DA:326,0
DA:331,0
DA:332,0
LF:95
LH:0
end_of_record
TN:
SF:/Applications/Developpement/Qt/5.11.0/clang_64/lib/QtCore.framework/Headers/qarraydata.h
FN:234,_ZN15QTypedArrayDataItE10deallocateEP10QArrayData
FN:234,_ZN15QTypedArrayDataIcE10deallocateEP10QArrayData
FNDA:0,_ZN15QTypedArrayDataIcE10deallocateEP10QArrayData
FNDA:0,_ZN15QTypedArrayDataItE10deallocateEP10QArrayData
FNF:2
FNH:0
DA:237,0
DA:238,0
LF:2
LH:0
end_of_record
SF:/Applications/Developpement/Qt/5.11.0/clang_64/lib/QtCore.framework/Headers/qatomic_cxx11.h
FN:225,_ZN10QAtomicOpsIiE4loadIiEET_RKNSt3__16atomicIS2_EE
FN:263,_ZN10QAtomicOpsIiE3refIiEEbRNSt3__16atomicIT_EE
FN:269,_ZN10QAtomicOpsIiE5derefIiEEbRNSt3__16atomicIT_EE
FNDA:0,_ZN10QAtomicOpsIiE4loadIiEET_RKNSt3__16atomicIS2_EE
FNDA:0,_ZN10QAtomicOpsIiE3refIiEEbRNSt3__16atomicIT_EE
FNDA:0,_ZN10QAtomicOpsIiE5derefIiEEbRNSt3__16atomicIT_EE
FNF:3
FNH:0
DA:227,0
DA:265,0
DA:271,0
LF:3
LH:0
end_of_record
SF:/Applications/Developpement/Qt/5.11.0/clang_64/lib/QtCore.framework/Headers/qbasicatomic.h
FN:91,_ZNK19QBasicAtomicIntegerIiE4loadEv
FN:102,_ZN19QBasicAtomicIntegerIiE3refEv
FN:103,_ZN19QBasicAtomicIntegerIiE5derefEv
FNDA:0,_ZNK19QBasicAtomicIntegerIiE4loadEv
FNDA:0,_ZN19QBasicAtomicIntegerIiE3refEv
FNDA:0,_ZN19QBasicAtomicIntegerIiE5derefEv
FNF:3
FNH:0
DA:91,0
DA:102,0
DA:103,0
LF:3
LH:0
end_of_record
SF:/Applications/Developpement/Qt/5.11.0/clang_64/lib/QtCore.framework/Headers/qbytearray.h
FN:469,_ZN10QByteArrayD2Ev
FN:469,_ZN10QByteArrayD1Ev
FN:498,_ZN10QByteArrayC2ERKS_
FN:498,_ZN10QByteArrayC1ERKS_
FNDA:0,_ZN10QByteArrayD1Ev
FNDA:0,_ZN10QByteArrayD2Ev
FNDA:0,_ZN10QByteArrayC1ERKS_
FNDA:0,_ZN10QByteArrayC2ERKS_
FNF:4
FNH:0
DA:469,0
DA:498,0
DA:499,0
LF:3
LH:0
end_of_record
SF:/Applications/Developpement/Qt/5.11.0/clang_64/lib/QtCore.framework/Headers/qrefcount.h
FN:54,_ZN9QtPrivate8RefCount3refEv
FN:65,_ZN9QtPrivate8RefCount5derefEv
FNDA:0,_ZN9QtPrivate8RefCount3refEv
FNDA:0,_ZN9QtPrivate8RefCount5derefEv
FNF:2
FNH:0
DA:55,0
DA:57,0
DA:58,0
DA:60,0
DA:61,0
DA:62,0
DA:63,0
DA:66,0
DA:68,0
DA:69,0
DA:71,0
DA:72,0
DA:73,0
DA:74,0
LF:14
LH:0
end_of_record
SF:/Applications/Developpement/Qt/5.11.0/clang_64/lib/QtCore.framework/Headers/qscopedpointer.h
FN:116,_ZNK14QScopedPointerI11QObjectData21QScopedPointerDeleterIS0_EEptEv
FNDA:0,_ZNK14QScopedPointerI11QObjectData21QScopedPointerDeleterIS0_EEptEv
FNF:1
FNH:0
DA:118,0
LF:1
LH:0
end_of_record
SF:/Applications/Developpement/Qt/5.11.0/clang_64/lib/QtCore.framework/Headers/qstring.h
FN:952,_ZN7QStringC2ERKS_
FN:952,_ZN7QStringC1ERKS_
FN:1130,_ZN7QStringD1Ev
FN:1130,_ZN7QStringD2Ev
FNDA:0,_ZN7QStringC1ERKS_
FNDA:0,_ZN7QStringC2ERKS_
FNDA:0,_ZN7QStringD1Ev
FNDA:0,_ZN7QStringD2Ev
FNF:4
FNH:0
DA:952,0
DA:953,0
DA:1130,0
LF:3
LH:0
end_of_record
SF:/Library/Developer/CommandLineTools/usr/include/c++/v1/atomic
FN:927,_ZNKSt3__113__atomic_baseIiLb0EE4loadENS_12memory_orderE
FN:1019,_ZNSt3__113__atomic_baseIiLb1EE9fetch_addEiNS_12memory_orderE
FN:1025,_ZNSt3__113__atomic_baseIiLb1EE9fetch_subEiNS_12memory_orderE
FN:1057,_ZNSt3__113__atomic_baseIiLb1EEppEv
FN:1061,_ZNSt3__113__atomic_baseIiLb1EEmmEv
FNDA:0,_ZNKSt3__113__atomic_baseIiLb0EE4loadENS_12memory_orderE
FNDA:0,_ZNSt3__113__atomic_baseIiLb1EE9fetch_addEiNS_12memory_orderE
FNDA:0,_ZNSt3__113__atomic_baseIiLb1EE9fetch_subEiNS_12memory_orderE
FNDA:0,_ZNSt3__113__atomic_baseIiLb1EEppEv
FNDA:0,_ZNSt3__113__atomic_baseIiLb1EEmmEv
FNF:5
FNH:0
DA:929,0
DA:1020,0
DA:1026,0
DA:1057,0
DA:1061,0
LF:5
LH:0
end_of_record
SF:/tmp/build-tests-Desktop_Qt_5_11_0_clang_64bit-Debug/tst_testdebughelper/moc_SerialPortController.cpp
FN:92,_ZN20SerialPortController18qt_static_metacallEP7QObjectN11QMetaObject4CallEiPPv
FN:146,_ZNK20SerialPortController10metaObjectEv
FN:151,_ZN20SerialPortController11qt_metacastEPKc
FN:159,_ZN20SerialPortController11qt_metacallEN11QMetaObject4CallEiPPv
FN:177,_ZN20SerialPortController10portOpenedEv
FN:183,_ZN20SerialPortController13portNotOpenedEv
FN:189,_ZN20SerialPortController12dataReceivedE10QByteArray
FN:196,_ZN20SerialPortController11dataWrittenEx
FNDA:0,_ZN20SerialPortController18qt_static_metacallEP7QObjectN11QMetaObject4CallEiPPv
FNDA:0,_ZNK20SerialPortController10metaObjectEv
FNDA:0,_ZN20SerialPortController11qt_metacastEPKc
FNDA:0,_ZN20SerialPortController11qt_metacallEN11QMetaObject4CallEiPPv
FNDA:0,_ZN20SerialPortController10portOpenedEv
FNDA:0,_ZN20SerialPortController13portNotOpenedEv
FNDA:0,_ZN20SerialPortController12dataReceivedE10QByteArray
FNDA:0,_ZN20SerialPortController11dataWrittenEx
FNF:8
FNH:0
DA:94,0
DA:95,0
DA:97,0
DA:98,0
DA:99,0
DA:100,0
DA:101,0
DA:102,0
DA:103,0
DA:104,0
DA:106,0
DA:107,0
DA:108,0
DA:111,0
DA:112,0
DA:113,0
DA:118,0
DA:119,0
DA:120,0
DA:125,0
DA:126,0
DA:127,0
DA:132,0
DA:133,0
DA:134,0
DA:137,0
DA:138,0
DA:148,0
DA:153,0
DA:154,0
DA:155,0
DA:156,0
DA:157,0
DA:161,0
DA:162,0
DA:163,0
DA:164,0
DA:165,0
DA:166,0
DA:167,0
DA:168,0
DA:169,0
DA:170,0
DA:171,0
DA:172,0
DA:173,0
DA:174,0
DA:179,0
DA:180,0
DA:185,0
DA:186,0
DA:191,0
DA:192,0
DA:193,0
DA:198,0
DA:199,0
DA:200,0
LF:57
LH:0
end_of_record
TN:
SF:/Applications/Developpement/Qt/5.11.0/clang_64/lib/QtCore.framework/Headers/qarraydata.h
FN:57,_ZN10QArrayData4dataEv
FN:206,_ZN15QTypedArrayDataIcE4dataEv
FN:206,_ZN15QTypedArrayDataItE4dataEv
FN:234,_ZN15QTypedArrayDataIcE10deallocateEP10QArrayData
FN:234,_ZN15QTypedArrayDataItE10deallocateEP10QArrayData
FNDA:0,_ZN10QArrayData4dataEv
FNDA:0,_ZN15QTypedArrayDataItE4dataEv
FNDA:0,_ZN15QTypedArrayDataIcE4dataEv
FNDA:0,_ZN15QTypedArrayDataItE10deallocateEP10QArrayData
FNDA:0,_ZN15QTypedArrayDataIcE10deallocateEP10QArrayData
FNF:5
FNH:0
DA:59,0
DA:61,0
DA:206,0
DA:237,0
DA:238,0
LF:5
LH:0
end_of_record
SF:/Applications/Developpement/Qt/5.11.0/clang_64/lib/QtCore.framework/Headers/qatomic.h
FN:60,_ZN14QAtomicIntegerIiEC2Ei
FN:162,_ZN10QAtomicIntC2Ei
FN:162,_ZN10QAtomicIntC1Ei
FNDA:0,_ZN14QAtomicIntegerIiEC2Ei
FNDA:0,_ZN10QAtomicIntC1Ei
FNDA:0,_ZN10QAtomicIntC2Ei
FNF:3
FNH:0
DA:60,0
DA:162,0
LF:2
LH:0
end_of_record
SF:/Applications/Developpement/Qt/5.11.0/clang_64/lib/QtCore.framework/Headers/qatomic_cxx11.h
FN:225,_ZN10QAtomicOpsIiE4loadIiEET_RKNSt3__16atomicIS2_EE
FN:263,_ZN10QAtomicOpsIiE3refIiEEbRNSt3__16atomicIT_EE
FN:269,_ZN10QAtomicOpsIiE5derefIiEEbRNSt3__16atomicIT_EE
FNDA:0,_ZN10QAtomicOpsIiE4loadIiEET_RKNSt3__16atomicIS2_EE
FNDA:0,_ZN10QAtomicOpsIiE3refIiEEbRNSt3__16atomicIT_EE
FNDA:0,_ZN10QAtomicOpsIiE5derefIiEEbRNSt3__16atomicIT_EE
FNF:3
FNH:0
DA:227,0
DA:265,0
DA:271,0
LF:3
LH:0
end_of_record
SF:/Applications/Developpement/Qt/5.11.0/clang_64/lib/QtCore.framework/Headers/qbasicatomic.h
FN:91,_ZNK19QBasicAtomicIntegerIiE4loadEv
FN:102,_ZN19QBasicAtomicIntegerIiE3refEv
FN:103,_ZN19QBasicAtomicIntegerIiE5derefEv
FN:209,_ZN19QBasicAtomicIntegerIiEC2Ei
FNDA:0,_ZNK19QBasicAtomicIntegerIiE4loadEv
FNDA:0,_ZN19QBasicAtomicIntegerIiE3refEv
FNDA:0,_ZN19QBasicAtomicIntegerIiE5derefEv
FNDA:0,_ZN19QBasicAtomicIntegerIiEC2Ei
FNF:4
FNH:0
DA:91,0
DA:102,0
DA:103,0
DA:209,0
LF:4
LH:0
end_of_record
SF:/Applications/Developpement/Qt/5.11.0/clang_64/lib/QtCore.framework/Headers/qbytearray.h
FN:76,_Z8qstrnlenPKcj
FN:265,_ZNO10QByteArray7toUpperEv
FN:469,_ZN10QByteArrayD2Ev
FN:469,_ZN10QByteArrayD1Ev
FN:470,_ZNK10QByteArray4sizeEv
FN:492,_ZNK10QByteArray9constDataEv
FN:498,_ZN10QByteArrayC1ERKS_
FN:498,_ZN10QByteArrayC2ERKS_
FNDA:0,_Z8qstrnlenPKcj
FNDA:0,_ZNO10QByteArray7toUpperEv
FNDA:0,_ZN10QByteArrayD1Ev
FNDA:0,_ZN10QByteArrayD2Ev
FNDA:0,_ZNK10QByteArray4sizeEv
FNDA:0,_ZNK10QByteArray9constDataEv
FNDA:0,_ZN10QByteArrayC1ERKS_
FNDA:0,_ZN10QByteArrayC2ERKS_
FNF:8
FNH:0
DA:78,0
DA:79,0
DA:80,0
DA:81,0
DA:82,0
DA:83,0
DA:266,0
DA:469,0
DA:471,0
DA:493,0
DA:498,0
DA:499,0
LF:12
LH:0
end_of_record
SF:/Applications/Developpement/Qt/5.11.0/clang_64/lib/QtCore.framework/Headers/qdebug.h
FN:116,_ZN6QDebugC2ERKS_
FN:116,_ZN6QDebugC1ERKS_
FN:125,_ZN6QDebug10maybeSpaceEv
FN:145,_ZN6QDebuglsEi
FN:153,_ZN6QDebuglsEPKc
FN:155,_ZN6QDebuglsERK7QString
FN:160,_ZN6QDebuglsERK10QByteArray
FN:372,_ZlsIN11QSerialPort15SerialPortErrorEENSt3__19enable_ifIXsr9QtPrivate13IsQEnumHelperIT_EE5ValueE6QDebugE4typeES5_S4_
FNDA:0,_ZN6QDebugC1ERKS_
FNDA:0,_ZN6QDebugC2ERKS_
FNDA:0,_ZN6QDebug10maybeSpaceEv
FNDA:0,_ZN6QDebuglsEi
FNDA:0,_ZN6QDebuglsEPKc
FNDA:0,_ZN6QDebuglsERK7QString
FNDA:0,_ZN6QDebuglsERK10QByteArray
FNDA:0,_ZlsIN11QSerialPort15SerialPortErrorEENSt3__19enable_ifIXsr9QtPrivate13IsQEnumHelperIT_EE5ValueE6QDebugE4typeES5_S4_
FNF:8
FNH:0
DA:116,0
DA:125,0
DA:145,0
DA:153,0
DA:155,0
DA:160,0
DA:374,0
DA:375,0
DA:376,0
LF:9
LH:0
end_of_record
SF:/Applications/Developpement/Qt/5.11.0/clang_64/lib/QtCore.framework/Headers/qflags.h
FN:120,_ZN6QFlagsIN9QIODevice12OpenModeFlagEEC2ES1_
FN:120,_ZN6QFlagsIN9QIODevice12OpenModeFlagEEC1ES1_
FN:120,_ZN6QFlagsIN11QSerialPort9DirectionEEC2ES1_
FN:120,_ZN6QFlagsIN11QSerialPort9DirectionEEC1ES1_
FNDA:0,_ZN6QFlagsIN9QIODevice12OpenModeFlagEEC1ES1_
FNDA:0,_ZN6QFlagsIN11QSerialPort9DirectionEEC1ES1_
FNDA:0,_ZN6QFlagsIN9QIODevice12OpenModeFlagEEC2ES1_
FNDA:0,_ZN6QFlagsIN11QSerialPort9DirectionEEC2ES1_
FNF:4
FNH:0
DA:120,0
LF:1
LH:0
end_of_record
SF:/Applications/Developpement/Qt/5.11.0/clang_64/lib/QtCore.framework/Headers/qglobal.h
FN:963,_Z8qAsConstI5QListI15QSerialPortInfoEERNSt3__19add_constIT_E4typeERS5_
FN:973,_ZN9QtPrivate17QForeachContainerI5QListI15QSerialPortInfoEED2Ev
FN:973,_ZN9QtPrivate17QForeachContainerI5QListI15QSerialPortInfoEED1Ev
FN:976,_ZN9QtPrivate17QForeachContainerI5QListI15QSerialPortInfoEEC2ERKS3_
FN:976,_ZN9QtPrivate17QForeachContainerI5QListI15QSerialPortInfoEEC1ERKS3_
FN:1002,_ZN9QtPrivate21qMakeForeachContainerIR5QListI15QSerialPortInfoEEENS_17QForeachContainerINSt3__15decayIT_E4typeEEEOS8_
FNDA:0,_Z8qAsConstI5QListI15QSerialPortInfoEERNSt3__19add_constIT_E4typeERS5_
FNDA:0,_ZN9QtPrivate17QForeachContainerI5QListI15QSerialPortInfoEED1Ev
FNDA:0,_ZN9QtPrivate17QForeachContainerI5QListI15QSerialPortInfoEED2Ev
FNDA:0,_ZN9QtPrivate17QForeachContainerI5QListI15QSerialPortInfoEEC1ERKS3_
FNDA:0,_ZN9QtPrivate17QForeachContainerI5QListI15QSerialPortInfoEEC2ERKS3_
FNDA:0,_ZN9QtPrivate21qMakeForeachContainerIR5QListI15QSerialPortInfoEEENS_17QForeachContainerINSt3__15decayIT_E4typeEEEOS8_
FNF:6
FNH:0
DA:963,0
DA:973,0
DA:976,0
DA:998,0
DA:1004,0
LF:5
LH:0
end_of_record
SF:/Applications/Developpement/Qt/5.11.0/clang_64/lib/QtCore.framework/Headers/qiodevice.h
FN:136,_ZN9QIODevice5writeERK10QByteArray
FNDA:0,_ZN9QIODevice5writeERK10QByteArray
FNF:1
FNH:0
DA:137,0
LF:1
LH:0
end_of_record
SF:/Applications/Developpement/Qt/5.11.0/clang_64/lib/QtCore.framework/Headers/qlist.h
FN:75,_ZN19QListSpecialMethodsI15QSerialPortInfoED2Ev
FN:100,_ZN9QListData7disposeEv
FN:113,_ZNK9QListData4sizeEv
FN:116,_ZNK9QListData5beginEv
FN:117,_ZNK9QListData3endEv
FN:142,_ZN5QListI15QSerialPortInfoE4Node1tEv
FN:151,_ZN5QListI7QStringEC2Ev
FN:170,_ZNK5QListI15QSerialPortInfoE4sizeEv
FN:287,_ZN5QListI15QSerialPortInfoE14const_iteratorC2EPNS1_4NodeE
FN:287,_ZN5QListI15QSerialPortInfoE14const_iteratorC1EPNS1_4NodeE
FN:298,_ZNK5QListI15QSerialPortInfoE14const_iteratordeEv
FN:302,_ZNK5QListI15QSerialPortInfoE14const_iteratorneERKS2_
FN:307,_ZN5QListI15QSerialPortInfoE14const_iteratorppEv
FN:323,_ZNK5QListI15QSerialPortInfoE5beginEv
FN:327,_ZNK5QListI15QSerialPortInfoE3endEv
FN:433,_ZN5QListI7QStringE14node_constructEPNS1_4NodeERKS0_
FN:449,_ZN5QListI7QStringE13node_destructEPNS1_4NodeE
FN:456,_ZN5QListI7QStringE9node_copyEPNS1_4NodeES3_S3_
FN:456,_ZN5QListI15QSerialPortInfoE9node_copyEPNS1_4NodeES3_S3_
FN:491,_ZN5QListI7QStringE13node_destructEPNS1_4NodeES3_
FN:491,_ZN5QListI15QSerialPortInfoE13node_destructEPNS1_4NodeES3_
FN:579,_ZN5QListI7QStringE6appendERKS0_
FN:753,_ZN5QListI7QStringE18detach_helper_growEii
FN:806,_ZN5QListI15QSerialPortInfoEC1ERKS1_
FN:806,_ZN5QListI15QSerialPortInfoEC2ERKS1_
FN:824,_ZN5QListI7QStringED2Ev
FN:824,_ZN5QListI15QSerialPortInfoED2Ev
FN:824,_ZN5QListI15QSerialPortInfoED1Ev
FN:863,_ZN5QListI7QStringE7deallocEPN9QListData4DataE
FN:863,_ZN5QListI15QSerialPortInfoE7deallocEPN9QListData4DataE
FNDA:0,_ZN19QListSpecialMethodsI15QSerialPortInfoED2Ev
FNDA:0,_ZN9QListData7disposeEv
FNDA:0,_ZNK9QListData4sizeEv
FNDA:0,_ZNK9QListData5beginEv
FNDA:0,_ZNK9QListData3endEv
FNDA:0,_ZN5QListI15QSerialPortInfoE4Node1tEv
FNDA:0,_ZN5QListI7QStringEC2Ev
FNDA:0,_ZNK5QListI15QSerialPortInfoE4sizeEv
FNDA:0,_ZN5QListI15QSerialPortInfoE14const_iteratorC1EPNS1_4NodeE
FNDA:0,_ZN5QListI15QSerialPortInfoE14const_iteratorC2EPNS1_4NodeE
FNDA:0,_ZNK5QListI15QSerialPortInfoE14const_iteratordeEv
FNDA:0,_ZNK5QListI15QSerialPortInfoE14const_iteratorneERKS2_
FNDA:0,_ZN5QListI15QSerialPortInfoE14const_iteratorppEv
FNDA:0,_ZNK5QListI15QSerialPortInfoE5beginEv
FNDA:0,_ZNK5QListI15QSerialPortInfoE3endEv
FNDA:0,_ZN5QListI7QStringE14node_constructEPNS1_4NodeERKS0_
FNDA:0,_ZN5QListI7QStringE13node_destructEPNS1_4NodeE
FNDA:0,_ZN5QListI7QStringE9node_copyEPNS1_4NodeES3_S3_
FNDA:0,_ZN5QListI15QSerialPortInfoE9node_copyEPNS1_4NodeES3_S3_
FNDA:0,_ZN5QListI7QStringE13node_destructEPNS1_4NodeES3_
FNDA:0,_ZN5QListI15QSerialPortInfoE13node_destructEPNS1_4NodeES3_
FNDA:0,_ZN5QListI7QStringE6appendERKS0_
FNDA:0,_ZN5QListI7QStringE18detach_helper_growEii
FNDA:0,_ZN5QListI15QSerialPortInfoEC1ERKS1_
FNDA:0,_ZN5QListI15QSerialPortInfoEC2ERKS1_
FNDA:0,_ZN5QListI15QSerialPortInfoED1Ev
FNDA:0,_ZN5QListI7QStringED2Ev
FNDA:0,_ZN5QListI15QSerialPortInfoED2Ev
FNDA:0,_ZN5QListI7QStringE7deallocEPN9QListData4DataE
FNDA:0,_ZN5QListI15QSerialPortInfoE7deallocEPN9QListData4DataE
FNF:30
FNH:0
DA:75,0
DA:100,0
DA:113,0
DA:116,0
DA:117,0
DA:143,0
DA:144,0
DA:151,0
DA:170,0
DA:287,0
DA:298,0
DA:302,0
DA:307,0
DA:323,0
DA:327,0
DA:436,0
DA:446,0
DA:452,0
DA:453,0
DA:458,0
DA:461,0
DA:462,0
DA:463,0
DA:464,0
DA:466,0
DA:467,0
DA:468,0
DA:469,0
DA:470,0
DA:474,0
DA:475,0
DA:476,0
DA:477,0
DA:488,0
DA:494,0
DA:496,0
DA:497,0
DA:581,0
DA:582,0
DA:584,0
DA:585,0
DA:586,0
DA:587,0
DA:588,0
DA:589,0
DA:600,0
DA:602,0
DA:603,0
DA:604,0
DA:605,0
DA:606,0
DA:607,0
DA:610,0
DA:755,0
DA:756,0
DA:758,0
DA:759,0
DA:760,0
DA:761,0
DA:762,0
DA:763,0
DA:764,0
DA:766,0
DA:767,0
DA:768,0
DA:769,0
DA:770,0
DA:771,0
DA:772,0
DA:773,0
DA:774,0
DA:776,0
DA:777,0
DA:779,0
DA:780,0
DA:807,0
DA:808,0
DA:809,0
DA:810,0
DA:813,0
DA:814,0
DA:815,0
DA:816,0
DA:817,0
DA:818,0
DA:819,0
DA:820,0
DA:821,0
DA:825,0
DA:826,0
DA:827,0
DA:828,0
DA:865,0
DA:866,0
DA:867,0
DA:868,0
LF:96
LH:0
end_of_record
SF:/Applications/Developpement/Qt/5.11.0/clang_64/lib/QtCore.framework/Headers/qlogging.h
FN:68,_ZN18QMessageLogContextC2EPKciS1_S1_
FN:68,_ZN18QMessageLogContextC1EPKciS1_S1_
FN:91,_ZN14QMessageLoggerC1EPKciS1_
FN:91,_ZN14QMessageLoggerC2EPKciS1_
FNDA:0,_ZN18QMessageLogContextC1EPKciS1_S1_
FNDA:0,_ZN18QMessageLogContextC2EPKciS1_S1_
FNDA:0,_ZN14QMessageLoggerC1EPKciS1_
FNDA:0,_ZN14QMessageLoggerC2EPKciS1_
FNF:4
FNH:0
DA:69,0
DA:92,0
LF:2
LH:0
end_of_record
SF:/Applications/Developpement/Qt/5.11.0/clang_64/lib/QtCore.framework/Headers/qmutex.h
FN:199,_ZN12QMutexLockerC2EP11QBasicMutex
FN:199,_ZN12QMutexLockerC1EP11QBasicMutex
FN:213,_ZN12QMutexLockerD2Ev
FN:213,_ZN12QMutexLockerD1Ev
FN:215,_ZN12QMutexLocker6unlockEv
FN:238,_ZNK12QMutexLocker5mutexEv
FNDA:0,_ZN12QMutexLockerC1EP11QBasicMutex
FNDA:0,_ZN12QMutexLockerC2EP11QBasicMutex
FNDA:0,_ZN12QMutexLockerD1Ev
FNDA:0,_ZN12QMutexLockerD2Ev
FNDA:0,_ZN12QMutexLocker6unlockEv
FNDA:0,_ZNK12QMutexLocker5mutexEv
FNF:6
FNH:0
DA:200,0
DA:201,0
DA:203,0
DA:204,0
DA:206,0
DA:207,0
DA:208,0
DA:209,0
DA:213,0
DA:217,0
DA:218,0
DA:219,0
DA:220,0
DA:221,0
DA:240,0
LF:15
LH:0
end_of_record
SF:/Applications/Developpement/Qt/5.11.0/clang_64/lib/QtCore.framework/Headers/qobject.h
FN:228,_ZN7QObject7connectIM9QIODeviceFvvEM20SerialPortControllerFvvEEEN11QMetaObject10ConnectionEPKN9QtPrivate15FunctionPointerIT_E6ObjectESB_PKNSA_IT0_E6ObjectESG_N2Qt14ConnectionTypeE
FNDA:0,_ZN7QObject7connectIM9QIODeviceFvvEM20SerialPortControllerFvvEEEN11QMetaObject10ConnectionEPKN9QtPrivate15FunctionPointerIT_E6ObjectESB_PKNSA_IT0_E6ObjectESG_N2Qt14ConnectionTypeE
FNF:1
FNH:0
DA:246,0
DA:247,0
DA:248,0
DA:250,0
DA:251,0
DA:252,0
DA:253,0
DA:254,0
DA:255,0
LF:9
LH:0
end_of_record
SF:/Applications/Developpement/Qt/5.11.0/clang_64/lib/QtCore.framework/Headers/qobject_impl.h
FN:73,_ZN9QtPrivate15ConnectionTypesINS_4ListIJEEELb1EE5typesEv
FNDA:0,_ZN9QtPrivate15ConnectionTypesINS_4ListIJEEELb1EE5typesEv
FNF:1
FNH:0
DA:73,0
LF:1
LH:0
end_of_record
SF:/Applications/Developpement/Qt/5.11.0/clang_64/lib/QtCore.framework/Headers/qobjectdefs_impl.h
FN:88,_ZN9QtPrivate16ApplyReturnValueIvEC1EPv
FN:88,_ZN9QtPrivate16ApplyReturnValueIvEC2EPv
FN:133,_ZN9QtPrivate11FunctorCallINS_11IndexesListIJEEENS_4ListIJEEEvM20SerialPortControllerFvvEE4callES7_PS5_PPv
FN:166,_ZN9QtPrivate15FunctionPointerIM20SerialPortControllerFvvEE4callINS_4ListIJEEEvEEvS3_PS1_PPv
FN:369,_ZN9QtPrivate15QSlotObjectBaseC2EPFviPS0_P7QObjectPPvPbE
FN:378,_ZN9QtPrivate15QSlotObjectBaseD2Ev
FN:385,_ZN9QtPrivate11QSlotObjectIM20SerialPortControllerFvvENS_4ListIJEEEvED1Ev
FN:385,_ZN9QtPrivate11QSlotObjectIM20SerialPortControllerFvvENS_4ListIJEEEvED2Ev
FN:389,_ZN9QtPrivate11QSlotObjectIM20SerialPortControllerFvvENS_4ListIJEEEvE4implEiPNS_15QSlotObjectBaseEP7QObjectPPvPb
FN:405,_ZN9QtPrivate11QSlotObjectIM20SerialPortControllerFvvENS_4ListIJEEEvEC1ES3_
FN:405,_ZN9QtPrivate11QSlotObjectIM20SerialPortControllerFvvENS_4ListIJEEEvEC2ES3_
FNDA:0,_ZN9QtPrivate16ApplyReturnValueIvEC1EPv
FNDA:0,_ZN9QtPrivate16ApplyReturnValueIvEC2EPv
FNDA:0,_ZN9QtPrivate11FunctorCallINS_11IndexesListIJEEENS_4ListIJEEEvM20SerialPortControllerFvvEE4callES7_PS5_PPv
FNDA:0,_ZN9QtPrivate15FunctionPointerIM20SerialPortControllerFvvEE4callINS_4ListIJEEEvEEvS3_PS1_PPv
FNDA:0,_ZN9QtPrivate15QSlotObjectBaseC2EPFviPS0_P7QObjectPPvPbE
FNDA:0,_ZN9QtPrivate15QSlotObjectBaseD2Ev
FNDA:0,_ZN9QtPrivate11QSlotObjectIM20SerialPortControllerFvvENS_4ListIJEEEvED1Ev
FNDA:0,_ZN9QtPrivate11QSlotObjectIM20SerialPortControllerFvvENS_4ListIJEEEvED2Ev
FNDA:0,_ZN9QtPrivate11QSlotObjectIM20SerialPortControllerFvvENS_4ListIJEEEvE4implEiPNS_15QSlotObjectBaseEP7QObjectPPvPb
FNDA:0,_ZN9QtPrivate11QSlotObjectIM20SerialPortControllerFvvENS_4ListIJEEEvEC1ES3_
FNDA:0,_ZN9QtPrivate11QSlotObjectIM20SerialPortControllerFvvENS_4ListIJEEEvEC2ES3_
FNF:11
FNH:0
DA:88,0
DA:134,0
DA:135,0
DA:167,0
DA:168,0
DA:369,0
DA:378,0
DA:385,0
DA:391,0
DA:393,0
DA:394,0
DA:396,0
DA:397,0
DA:399,0
DA:400,0
DA:402,0
DA:403,0
DA:405,0
LF:18
LH:0
end_of_record
SF:/Applications/Developpement/Qt/5.11.0/clang_64/lib/QtCore.framework/Headers/qrefcount.h
FN:54,_ZN9QtPrivate8RefCount3refEv
FN:65,_ZN9QtPrivate8RefCount5derefEv
FN:99,_ZNK9QtPrivate8RefCount8isSharedEv
FNDA:0,_ZN9QtPrivate8RefCount3refEv
FNDA:0,_ZN9QtPrivate8RefCount5derefEv
FNDA:0,_ZNK9QtPrivate8RefCount8isSharedEv
FNF:3
FNH:0
DA:55,0
DA:57,0
DA:58,0
DA:60,0
DA:61,0
DA:62,0
DA:63,0
DA:66,0
DA:68,0
DA:69,0
DA:71,0
DA:72,0
DA:73,0
DA:74,0
DA:101,0
DA:102,0
LF:16
LH:0
end_of_record
SF:/Applications/Developpement/Qt/5.11.0/clang_64/lib/QtCore.framework/Headers/qstring.h
FN:567,_ZN7QString8fromUtf8EPKci
FN:693,_ZN7QStringC1EPKc
FN:693,_ZN7QStringC2EPKc
FN:696,_ZN7QStringC1ERK10QByteArray
FN:696,_ZN7QStringC2ERK10QByteArray
FN:928,_ZNK7QString6lengthEv
FN:944,_ZNK7QString9constDataEv
FN:952,_ZN7QStringC2ERKS_
FN:952,_ZN7QStringC1ERKS_
FN:1130,_ZN7QStringD1Ev
FN:1130,_ZN7QStringD2Ev
FNDA:0,_ZN7QString8fromUtf8EPKci
FNDA:0,_ZN7QStringC1EPKc
FNDA:0,_ZN7QStringC2EPKc
FNDA:0,_ZN7QStringC1ERK10QByteArray
FNDA:0,_ZN7QStringC2ERK10QByteArray
FNDA:0,_ZNK7QString6lengthEv
FNDA:0,_ZNK7QString9constDataEv
FNDA:0,_ZN7QStringC1ERKS_
FNDA:0,_ZN7QStringC2ERKS_
FNDA:0,_ZN7QStringD1Ev
FNDA:0,_ZN7QStringD2Ev
FNF:11
FNH:0
DA:569,0
DA:694,0
DA:695,0
DA:697,0
DA:698,0
DA:929,0
DA:945,0
DA:952,0
DA:953,0
DA:1130,0
LF:10
LH:0
end_of_record
SF:/Applications/Developpement/Qt/5.11.0/clang_64/lib/QtCore.framework/Headers/qstringlist.h
FN:69,_ZN19QListSpecialMethodsI7QStringED2Ev
FN:99,_ZN11QStringListD1Ev
FN:99,_ZN11QStringListD2Ev
FN:103,_ZN11QStringListC2Ev
FN:103,_ZN11QStringListC1Ev
FN:125,_ZN11QStringListlsERK7QString
FNDA:0,_ZN19QListSpecialMethodsI7QStringED2Ev
FNDA:0,_ZN11QStringListD1Ev
FNDA:0,_ZN11QStringListD2Ev
FNDA:0,_ZN11QStringListC1Ev
FNDA:0,_ZN11QStringListC2Ev
FNDA:0,_ZN11QStringListlsERK7QString
FNF:6
FNH:0
DA:69,0
DA:99,0
DA:103,0
DA:126,0
LF:4
LH:0
end_of_record
SF:/Applications/Developpement/Qt/5.11.0/clang_64/lib/QtQml.framework/Headers/qqmldebug.h
FN:79,__cxx_global_var_init
FNDA:1,__cxx_global_var_init
FNF:1
FNH:1
DA:79,2
LF:1
LH:1
end_of_record
SF:/Applications/Developpement/Qt/5.11.0/clang_64/lib/QtSerialPort.framework/Headers/qserialport.h
FN:193,_Z20qt_getEnumMetaObjectN11QSerialPort15SerialPortErrorE
FN:193,_Z14qt_getEnumNameN11QSerialPort15SerialPortErrorE
FNDA:0,_Z20qt_getEnumMetaObjectN11QSerialPort15SerialPortErrorE
FNDA:0,_Z14qt_getEnumNameN11QSerialPort15SerialPortErrorE
FNF:2
FNH:0
DA:193,0
LF:1
LH:0
end_of_record
SF:/Library/Developer/CommandLineTools/usr/include/c++/v1/atomic
FN:927,_ZNKSt3__113__atomic_baseIiLb0EE4loadENS_12memory_orderE
FN:985,_ZNSt3__113__atomic_baseIiLb0EEC2Ei
FN:1013,_ZNSt3__113__atomic_baseIiLb1EEC2Ei
FN:1019,_ZNSt3__113__atomic_baseIiLb1EE9fetch_addEiNS_12memory_orderE
FN:1025,_ZNSt3__113__atomic_baseIiLb1EE9fetch_subEiNS_12memory_orderE
FN:1057,_ZNSt3__113__atomic_baseIiLb1EEppEv
FN:1061,_ZNSt3__113__atomic_baseIiLb1EEmmEv
FN:1094,_ZNSt3__16atomicIiEC2Ei
FN:1094,_ZNSt3__16atomicIiEC1Ei
FNDA:0,_ZNKSt3__113__atomic_baseIiLb0EE4loadENS_12memory_orderE
FNDA:0,_ZNSt3__113__atomic_baseIiLb0EEC2Ei
FNDA:0,_ZNSt3__113__atomic_baseIiLb1EEC2Ei
FNDA:0,_ZNSt3__113__atomic_baseIiLb1EE9fetch_addEiNS_12memory_orderE
FNDA:0,_ZNSt3__113__atomic_baseIiLb1EE9fetch_subEiNS_12memory_orderE
FNDA:0,_ZNSt3__113__atomic_baseIiLb1EEppEv
FNDA:0,_ZNSt3__113__atomic_baseIiLb1EEmmEv
FNDA:0,_ZNSt3__16atomicIiEC1Ei
FNDA:0,_ZNSt3__16atomicIiEC2Ei
FNF:9
FNH:0
DA:929,0
DA:985,0
DA:1013,0
DA:1020,0
DA:1026,0
DA:1057,0
DA:1061,0
DA:1094,0
LF:8
LH:0
end_of_record
SF:/Library/Developer/CommandLineTools/usr/include/c++/v1/type_traits
FN:2299,_ZNSt3__17forwardIR5QListI15QSerialPortInfoEEEOT_RNS_16remove_referenceIS5_E4typeE
FNDA:0,_ZNSt3__17forwardIR5QListI15QSerialPortInfoEEEOT_RNS_16remove_referenceIS5_E4typeE
FNF:1
FNH:0
DA:2301,0
LF:1
LH:0
end_of_record
SF:/Users/tristan/Documents/Sources/BurgerQuiz/controllers/SerialPortController.cpp
FN:9,_ZN20SerialPortControllerC2EP7QObject
FN:9,_ZN20SerialPortControllerC1EP7QObject
FN:13,_ZN20SerialPortControllerD2Ev
FN:13,_ZN20SerialPortControllerD1Ev
FN:13,_ZN20SerialPortControllerD0Ev
FN:17,_ZN20SerialPortController14availablePortsEv
FN:40,_ZN20SerialPortController16internalOpenPortE7QString
FN:66,_ZN20SerialPortController23internalWriteDataOnPortE10QByteArray
FN:85,_ZN20SerialPortController9closePortEv
FN:93,__cxx_global_var_init.20
FN:94,_ZN20SerialPortController11onReadyReadEv
FNDA:0,_ZN20SerialPortControllerC2EP7QObject
FNDA:0,_ZN20SerialPortControllerC1EP7QObject
FNDA:0,_ZN20SerialPortControllerD2Ev
FNDA:0,_ZN20SerialPortControllerD1Ev
FNDA:0,_ZN20SerialPortControllerD0Ev
FNDA:0,_ZN20SerialPortController14availablePortsEv
FNDA:0,_ZN20SerialPortController16internalOpenPortE7QString
FNDA:0,_ZN20SerialPortController23internalWriteDataOnPortE10QByteArray
FNDA:0,_ZN20SerialPortController9closePortEv
FNDA:1,__cxx_global_var_init.20
FNDA:0,_ZN20SerialPortController11onReadyReadEv
FNF:11
FNH:1
DA:10,0
DA:11,0
DA:14,0
DA:15,0
DA:19,0
DA:20,0
DA:21,0
DA:23,0
DA:24,0
DA:26,0
DA:28,0
DA:29,0
DA:30,0
DA:33,0
DA:34,0
DA:35,0
DA:37,0
DA:38,0
DA:42,0
DA:44,0
DA:45,0
DA:46,0
DA:47,0
DA:50,0
DA:52,0
DA:53,0
DA:54,0
DA:55,0
DA:56,0
DA:57,0
DA:58,0
DA:59,0
DA:60,0
DA:61,0
DA:62,0
DA:64,0
DA:68,0
DA:69,0
DA:70,0
DA:73,0
DA:74,0
DA:75,0
DA:76,0
DA:77,0
DA:78,0
DA:79,0
DA:80,0
DA:83,0
DA:87,0
DA:88,0
DA:89,0
DA:90,0
DA:91,0
DA:93,2
DA:97,0
DA:99,0
DA:100,0
DA:101,0
DA:102,0
DA:103,0
DA:104,0
LF:61
LH:1
end_of_record
SF:/Users/tristan/Documents/Sources/BurgerQuiz/helpers/DebugHelper.hpp
FN:16,_ZN11DebugHelper17byteArrayToStringE10QByteArray
FNDA:0,_ZN11DebugHelper17byteArrayToStringE10QByteArray
FNF:1
FNH:0
DA:17,0
DA:18,0
LF:2
LH:0
end_of_record
